(lp1
(itile
tile
p2
(dp3
S'can_grown'
p4
I00
sS'name'
p5
S'Floor'
p6
sS'move_mes'
p7
S'You walk over a wooden floor.'
p8
sS'techID'
p9
I66
sS'move'
p10
I01
sS'damage'
p11
I0
sS'tile_num'
p12
I0
sS'tile_category'
p13
S'building'
p14
sS'build_here'
p15
I01
sS'destroy'
p16
I00
sS'damage_mes'
p17
NsS'replace'
p18
NsS'civilisation'
p19
I01
sS'transparent'
p20
I01
sba(itile
tile
p21
(dp22
g4
I00
sg5
S'Wall'
p23
sg7
S'There is a wall here.'
p24
sg9
I67
sg10
I00
sg11
I0
sg12
I1
sg13
g14
sg15
I01
sg16
I00
sg17
Nsg18
Nsg19
I01
sg20
I01
sba(itile
tile
p25
(dp26
g4
I00
sg5
S'Door open'
p27
sg7
S'You walk trough a open door.'
p28
sg9
I68
sg10
I01
sg11
I0
sg12
I2
sg13
g14
sg15
I00
sg16
I00
sg17
Nsg18
Nsg19
I01
sg20
I01
sba(itile
tile
p29
(dp30
g4
I00
sg5
S'Door closed'
p31
sg7
S'The door swings open.'
p32
sg9
I69
sg10
I00
sg11
I0
sg12
I3
sg13
g14
sg15
I01
sg16
I1
sg17
Nsg18
g25
sg19
I01
sg20
I01
sba(itile
tile
p33
(dp34
g4
I00
sg5
S'Agriculture'
p35
sg7
S'You are walking on bare fields.'
p36
sg9
I70
sg10
I01
sg11
I0
sg12
I4
sg13
g14
sg15
I01
sg16
I00
sg17
Nsg18
Nsg19
I01
sg20
I01
sba(itile
tile
p37
(dp38
g4
I00
sg5
S'Budding Acriculture (Overworld)'
p39
sg7
S'Something starts to grow at this field.'
p40
sg9
I71
sg10
I01
sg11
I0
sg12
I5
sg13
g14
sg15
I01
sg16
I00
sg17
Nsg18
Nsg19
I01
sg20
I01
sba(itile
tile
p41
(dp42
g4
I00
sg5
S'Budding Acriculture (Caves)'
p43
sg7
g40
sg9
I72
sg10
I01
sg11
I0
sg12
I6
sg13
g14
sg15
I01
sg16
I00
sg17
Nsg18
Nsg19
I01
sg20
I01
sba(itile
tile
p44
(dp45
g4
I00
sg5
S'Acriculture Crops'
p46
sg7
S'The crops stand high here.'
p47
sg9
I73
sg10
I01
sg11
I0
sg12
I7
sg13
g14
sg15
I01
sg16
I00
sg17
Nsg18
Nsg19
I01
sg20
I01
sba(itile
tile
p48
(dp49
g4
I00
sg5
S'Acriculture Mushroom'
p50
sg7
S'A great mushroom grows at this field.'
p51
sg9
I74
sg10
I01
sg11
I0
sg12
I8
sg13
g14
sg15
I01
sg16
I00
sg17
Nsg18
Nsg19
I01
sg20
I01
sba(itile
tile
p52
(dp53
g4
I00
sg5
S'Blue Floor'
p54
sg7
S'You walk over a blue floor.'
p55
sg9
I75
sg10
I01
sg11
I0
sg12
I9
sg13
g14
sg15
I01
sg16
I00
sg17
Nsg18
Nsg19
I01
sg20
I01
sba(itile
tile
p56
(dp57
g4
I00
sg5
S'Blue Wall'
p58
sg7
g24
sg9
I76
sg10
I00
sg11
I0
sg12
I10
sg13
g14
sg15
I01
sg16
I00
sg17
Nsg18
Nsg19
I01
sg20
I01
sba(itile
tile
p59
(dp60
g4
I00
sg5
S'Green Floor'
p61
sg7
S'You walk over a green floor.'
p62
sg9
I77
sg10
I01
sg11
I0
sg12
I11
sg13
g14
sg15
I01
sg16
I00
sg17
Nsg18
Nsg19
I01
sg20
I01
sba(itile
tile
p63
(dp64
g4
I00
sg5
S'Green Wall'
p65
sg7
g24
sg9
I78
sg10
I00
sg11
I0
sg12
I12
sg13
g14
sg15
I01
sg16
I00
sg17
Nsg18
Nsg19
I01
sg20
I01
sba(itile
tile
p66
(dp67
g4
I00
sg5
S'Red Floor'
p68
sg7
S'You walk over a red floor.'
p69
sg9
I79
sg10
I01
sg11
I0
sg12
I13
sg13
g14
sg15
I01
sg16
I00
sg17
Nsg18
Nsg19
I01
sg20
I01
sba(itile
tile
p70
(dp71
g4
I00
sg5
S'Red Wall'
p72
sg7
g24
sg9
I80
sg10
I00
sg11
I0
sg12
I14
sg13
g14
sg15
I01
sg16
I00
sg17
Nsg18
Nsg19
I01
sg20
I01
sba(itile
tile
p73
(dp74
g4
I00
sg5
S'Orange Floor'
p75
sg7
S'You walk over a orange floor.'
p76
sg9
I81
sg10
I01
sg11
I0
sg12
I15
sg13
g14
sg15
I01
sg16
I00
sg17
Nsg18
Nsg19
I01
sg20
I01
sba(itile
tile
p77
(dp78
g4
I00
sg5
S'Orange Wall'
p79
sg7
g24
sg9
I82
sg10
I00
sg11
I0
sg12
I16
sg13
g14
sg15
I01
sg16
I00
sg17
Nsg18
Nsg19
I01
sg20
I01
sba(itile
tile
p80
(dp81
g4
I00
sg5
S'Purple Floor'
p82
sg7
S'You walk over a purple floor.'
p83
sg9
I83
sg10
I01
sg11
I0
sg12
I17
sg13
g14
sg15
I01
sg16
I00
sg17
Nsg18
Nsg19
I01
sg20
I01
sba(itile
tile
p84
(dp85
g4
I00
sg5
S'Purple Wall'
p86
sg7
g24
sg9
I84
sg10
I00
sg11
I0
sg12
I18
sg13
g14
sg15
I01
sg16
I00
sg17
Nsg18
Nsg19
I01
sg20
I01
sba(itile
tile
p87
(dp88
g4
I00
sg5
S'Orcish Floor'
p89
sg7
S'You walk over a hard soil.'
p90
sg9
I85
sg10
I01
sg11
I0
sg12
I19
sg13
g14
sg15
I01
sg16
I00
sg17
Nsg18
Nsg19
I01
sg20
I01
sba(itile
tile
p91
(dp92
g4
I00
sg5
S'Orcish Wall'
p93
sg7
g24
sg9
I86
sg10
I00
sg11
I0
sg12
I20
sg13
g14
sg15
I01
sg16
I00
sg17
Nsg18
Nsg19
I01
sg20
I01
sba(itile
tile
p94
(dp95
g4
I00
sg5
S'Nobel Floor'
p96
sg7
S'You walk over a floor made of stone.'
p97
sg9
I87
sg10
I01
sg11
I0
sg12
I21
sg13
g14
sg15
I01
sg16
I00
sg17
Nsg18
Nsg19
I01
sg20
I01
sba(itile
tile
p98
(dp99
g4
I00
sg5
S'Nobel Wall'
p100
sg7
g24
sg9
I88
sg10
I00
sg11
I0
sg12
I22
sg13
g14
sg15
I01
sg16
I00
sg17
Nsg18
Nsg19
I01
sg20
I01
sba(itile
tile
p101
(dp102
g4
I00
sg5
S'Elfish Floor'
p103
sg7
S'You walk over cobbled floor.'
p104
sg9
I89
sg10
I01
sg11
I0
sg12
I0
sg13
S'elfish'
p105
sg15
I01
sg16
I00
sg17
Nsg18
Nsg19
I01
sg20
I01
sba(itile
tile
p106
(dp107
g4
I00
sg5
S'Elfish Wall'
p108
sg7
g24
sg9
I90
sg10
I00
sg11
I0
sg12
I3
sg13
g105
sg15
I01
sg16
I00
sg17
Nsg18
Nsg19
I01
sg20
I01
sba.