(lp0
(imonster
monster
p1
(dp2
S'behavior'
p3
S'talk'
p4
sS'name'
p5
S'dryade'
p6
sS'move_border'
p7
I0
sS'attribute'
p8
(iattribute
attribute
p9
(dp10
S'p_defense'
p11
I0
sS'pickaxe_power'
p12
I0
sS'p_strange'
p13
I0
sS'm_strange'
p14
I0
sS'hunger'
p15
I0
sS'thirst_max'
p16
I0
sS'hunger_max'
p17
I0
sS'thirst'
p18
I0
sS'tiredness_max'
p19
I0
sS'tiredness'
p20
I0
sS'max_lp'
p21
I1
sS'max_mp'
p22
I0
sS'm_defense'
p23
I0
sS'luck'
p24
I0
sbsS'possible_effect'
p25
NsS'corps_lvl'
p26
I1
sS'ignore_damage'
p27
I00
sS'sprite_category'
p28
S'civilian'
p29
sS'attack_were'
p30
(S'Head'
p31
S'Body'
p32
S'Legs'
p33
tp34
sS'sprite_num'
p35
I0
sS'ignore_water'
p36
I01
sS'lp'
p37
I1
sS'techID'
p38
I5
sS'AI_style'
p39
S'ignore'
p40
sS'message'
p41
S'The dryade smiles mysterious.'
p42
sS'effect_probability'
p43
I0
sS'effect_duration'
p44
I0
sS'corps_style'
p45
g6
sS'move_done'
p46
I0
sba(imonster
monster
p47
(dp48
g3
g4
sg5
S'tame orc'
p49
sg7
I0
sg8
(iattribute
attribute
p50
(dp51
g11
I0
sg12
I0
sg13
I0
sg14
I0
sg15
I0
sg16
I0
sg17
I0
sg18
I0
sg19
I0
sg20
I0
sg21
I1
sg22
I0
sg23
I0
sg24
I0
sbsg25
Nsg26
I1
sg27
I00
sg28
g29
sg30
(g31
g32
g33
tp52
sg35
I1
sg36
I01
sg37
I1
sg38
I6
sg39
g40
sg41
S'The tame orc greets you.'
p53
sg43
I0
sg44
I0
sg45
S'human'
p54
sg46
I0
sba(imonster
monster
p55
(dp56
g3
g4
sg5
S'golden naga'
p57
sg7
I0
sg8
(iattribute
attribute
p58
(dp59
g11
I0
sg12
I0
sg13
I0
sg14
I0
sg15
I0
sg16
I0
sg17
I0
sg18
I0
sg19
I0
sg20
I0
sg21
I1
sg22
I0
sg23
I0
sg24
I0
sbsg25
Nsg26
I1
sg27
I00
sg28
g29
sg30
(g31
g32
g33
tp60
sg35
I2
sg36
I01
sg37
I1
sg38
I7
sg39
g40
sg41
S'The golden naga blinks.'
p61
sg43
I0
sg44
I0
sg45
g54
sg46
I0
sba(imonster
monster
p62
(dp63
g3
g4
sg5
S'wood elf'
p64
sg7
I0
sg8
(iattribute
attribute
p65
(dp66
g11
I0
sg12
I0
sg13
I0
sg14
I0
sg15
I0
sg16
I0
sg17
I0
sg18
I0
sg19
I0
sg20
I0
sg21
I1
sg22
I0
sg23
I0
sg24
I0
sbsg25
Nsg26
I1
sg27
I00
sg28
g29
sg30
(g31
g32
g33
tp67
sg35
I3
sg36
I01
sg37
I1
sg38
I8
sg39
g40
sg41
S'The wood elf waves.'
p68
sg43
I0
sg44
I0
sg45
g54
sg46
I0
sba.