(lp1
(itile
tile
p2
(dp3
S'can_grown'
p4
I01
sS'name'
p5
S'Grass'
p6
sS'move_mes'
p7
S'You walk over soft grass.'
p8
sS'techID'
p9
I47
sS'move'
p10
I01
sS'damage'
p11
I0
sS'tile_num'
p12
I0
sS'tile_category'
p13
S'local'
p14
sS'build_here'
p15
I01
sS'destroy'
p16
I00
sS'damage_mes'
p17
NsS'replace'
p18
NsS'civilisation'
p19
I00
sS'transparent'
p20
I01
sba(itile
tile
p21
(dp22
g4
I00
sg5
S'Scrub'
p23
sg7
S'There is a scrub here.'
p24
sg9
I48
sg10
I01
sg11
I0
sg12
I1
sg13
g14
sg15
I01
sg16
I00
sg17
Nsg18
Nsg19
I00
sg20
I01
sba(itile
tile
p25
(dp26
g4
I00
sg5
S'Scrub with red berries'
p27
sg7
S'There is a scrub with red berries here.'
p28
sg9
I49
sg10
I01
sg11
I0
sg12
I2
sg13
g14
sg15
I01
sg16
I00
sg17
Nsg18
Nsg19
I00
sg20
I01
sba(itile
tile
p29
(dp30
g4
I00
sg5
S'Scrub with buds'
p31
sg7
S'There is a scrub with some buds here.'
p32
sg9
I50
sg10
I01
sg11
I0
sg12
I3
sg13
g14
sg15
I01
sg16
I00
sg17
Nsg18
Nsg19
I00
sg20
I01
sba(itile
tile
p33
(dp34
g4
I00
sg5
S'Scrub with blossoms'
p35
sg7
S'There is a scrub with beautiful blossoms here.'
p36
sg9
I51
sg10
I01
sg11
I0
sg12
I4
sg13
g14
sg15
I01
sg16
I00
sg17
Nsg18
Nsg19
I00
sg20
I01
sba(itile
tile
p37
(dp38
g4
I00
sg5
S'Scrub with scruffy berries'
p39
sg7
S'There is a scrub with scruffy berries here.'
p40
sg9
I52
sg10
I01
sg11
I0
sg12
I5
sg13
g14
sg15
I01
sg16
I00
sg17
Nsg18
Nsg19
I00
sg20
I01
sba(itile
tile
p41
(dp42
g4
I00
sg5
S'Scrub seed'
p43
sg7
S'There are some seeds on the ground here.'
p44
sg9
I53
sg10
I01
sg11
I0
sg12
I6
sg13
g14
sg15
I01
sg16
I00
sg17
Nsg18
Nsg19
I00
sg20
I01
sba(itile
tile
p45
(dp46
g4
I00
sg5
S'Scrub sepling'
p47
sg7
S'Something start to grow here.'
p48
sg9
I54
sg10
I01
sg11
I0
sg12
I7
sg13
g14
sg15
I01
sg16
I00
sg17
Nsg18
Nsg19
I00
sg20
I01
sba(itile
tile
p49
(dp50
g4
I00
sg5
S'Small Scrub'
p51
sg7
S'There is a small scrub at this place.'
p52
sg9
I55
sg10
I01
sg11
I0
sg12
I8
sg13
g14
sg15
I01
sg16
I00
sg17
Nsg18
Nsg19
I00
sg20
I01
sba(itile
tile
p53
(dp54
g4
I00
sg5
S'Dead Scrub'
p55
sg7
S'There is a dead scrub here.'
p56
sg9
I56
sg10
I01
sg11
I0
sg12
I9
sg13
g14
sg15
I01
sg16
I00
sg17
Nsg18
Nsg19
I00
sg20
I01
sba(itile
tile
p57
(dp58
g4
I00
sg5
S'Tree sepling'
p59
sg7
S'There is a sepling here.'
p60
sg9
I57
sg10
I01
sg11
I0
sg12
I10
sg13
g14
sg15
I01
sg16
I00
sg17
Nsg18
Nsg19
I00
sg20
I01
sba(itile
tile
p61
(dp62
g4
I00
sg5
S'Tree young'
p63
sg7
S'There is a young tree here.'
p64
sg9
I58
sg10
I00
sg11
I0
sg12
I11
sg13
g14
sg15
I01
sg16
I00
sg17
Nsg18
Nsg19
I00
sg20
I01
sba(itile
tile
p65
(dp66
g4
I00
sg5
S'Tree'
p67
sg7
S'There is a tree here.'
p68
sg9
I59
sg10
I00
sg11
I0
sg12
I12
sg13
g14
sg15
I01
sg16
I00
sg17
Nsg18
Nsg19
I00
sg20
I01
sba(itile
tile
p69
(dp70
g4
I00
sg5
S'Tree dead'
p71
sg7
S'There is a dead tree here.'
p72
sg9
I60
sg10
I00
sg11
I0
sg12
I13
sg13
g14
sg15
I01
sg16
I00
sg17
Nsg18
Nsg19
I00
sg20
I01
sba(itile
tile
p73
(dp74
g4
I00
sg5
S'Rock'
p75
sg7
S'You break a big rock.'
p76
sg9
I61
sg10
I00
sg11
I0
sg12
I14
sg13
g14
sg15
I01
sg16
I2
sg17
Nsg18
Nsg19
I00
sg20
g2
sba(itile
tile
p77
(dp78
g4
I00
sg5
S'Herbs'
p79
sg7
S'Herbs grow at the ground.'
p80
sg9
I62
sg10
I01
sg11
I0
sg12
I15
sg13
g14
sg15
I01
sg16
I00
sg17
Nsg18
Nsg19
I00
sg20
I01
sba(itile
tile
p81
(dp82
g4
I00
sg5
S'Flowering herbs'
p83
sg7
S'Flowering herbs grow at the ground.'
p84
sg9
I63
sg10
I01
sg11
I0
sg12
I16
sg13
g14
sg15
I01
sg16
I00
sg17
Nsg18
Nsg19
I00
sg20
I01
sba(itile
tile
p85
(dp86
g4
I00
sg5
S'Scrub with blue berries'
p87
sg7
S'There is a scrub with blue berries here.'
p88
sg9
I64
sg10
I01
sg11
I0
sg12
I17
sg13
g14
sg15
I01
sg16
I00
sg17
Nsg18
Nsg19
I00
sg20
I01
sba(itile
tile
p89
(dp90
g4
I00
sg5
S'Scrub with yellow berries'
p91
sg7
S'There is a scrub with yellow berries here.'
p92
sg9
I65
sg10
I01
sg11
I0
sg12
I18
sg13
g14
sg15
I01
sg16
I00
sg17
Nsg18
Nsg19
I00
sg20
I01
sba.