(lp0
(iitem
item_misc
p1
(dp2
S'place_cat'
p3
S'functional'
p4
sS'place_num'
p5
I7
sS'inv_slot'
p6
S'misc'
p7
sS'techID'
p8
I0
sS'use_name'
p9
S'place'
p10
sS'effect'
p11
NsS'name'
p12
S'Fontain'
p13
sba(iitem
item_misc
p14
(dp15
g3
g4
sg5
I3
sg6
g7
sg8
I1
sg9
g10
sg11
Nsg12
S'Chest'
p16
sba(iitem
item_misc
p17
(dp18
g3
g4
sg5
I8
sg6
g7
sg8
I2
sg9
g10
sg11
Nsg12
S'Bed'
p19
sba(iitem
item_misc
p20
(dp21
g3
g4
sg5
I9
sg6
g7
sg8
I3
sg9
g10
sg11
Nsg12
S"Carpenter's workbench"
p22
sba(iitem
item_misc
p23
(dp24
g3
g4
sg5
I10
sg6
g7
sg8
I4
sg9
g10
sg11
Nsg12
S"Carver's workbench"
p25
sba(iitem
item_misc
p26
(dp27
g3
g4
sg5
I11
sg6
g7
sg8
I5
sg9
g10
sg11
Nsg12
S"Stonecutter's workbench"
p28
sba(iitem
item_misc
p29
(dp30
g3
g4
sg5
I12
sg6
g7
sg8
I6
sg9
g10
sg11
Nsg12
S"Forger's workbench"
p31
sba(iitem
item_misc
p32
(dp33
g3
g4
sg5
I13
sg6
g7
sg8
I7
sg9
g10
sg11
Nsg12
S"Alchemist's workshop"
p34
sba(iitem
item_misc
p35
(dp36
g3
g4
sg5
I14
sg6
g7
sg8
I8
sg9
g10
sg11
Nsg12
S'Furnace'
p37
sba(iitem
item_misc
p38
(dp39
g3
g4
sg5
I15
sg6
g7
sg8
I9
sg9
g10
sg11
Nsg12
S'Altar'
p40
sba(iitem
item_misc
p41
(dp42
g3
g4
sg5
I16
sg6
g7
sg8
I10
sg9
g10
sg11
Nsg12
S'Table'
p43
sba(iitem
item_misc
p44
(dp45
g3
g4
sg5
I17
sg6
g7
sg8
I11
sg9
g10
sg11
Nsg12
S'Wooden seat'
p46
sba(iitem
item_misc
p47
(dp48
g3
g4
sg5
I18
sg6
g7
sg8
I12
sg9
g10
sg11
Nsg12
S'Stone seat'
p49
sba(iitem
item_misc
p50
(dp51
g3
g4
sg5
I19
sg6
g7
sg8
I13
sg9
g10
sg11
Nsg12
S'Bookshelf'
p52
sba(iitem
item_misc
p53
(dp54
g3
I0
sg5
I0
sg6
g7
sg8
I14
sg9
S'use'
p55
sg11
Nsg12
S'Fishing rod'
p56
sba(iitem
item_misc
p57
(dp58
g3
S'building'
p59
sg5
I0
sg6
g7
sg8
I15
sg9
S'apply'
p60
sg11
Nsg12
S'Ordenary Blueprint'
p61
sba(iitem
item_misc
p62
(dp63
g3
g59
sg5
I9
sg6
g7
sg8
I16
sg9
g60
sg11
Nsg12
S'Blue Blueprint'
p64
sba(iitem
item_misc
p65
(dp66
g3
g59
sg5
I11
sg6
g7
sg8
I17
sg9
g60
sg11
Nsg12
S'Green Blueprint'
p67
sba(iitem
item_misc
p68
(dp69
g3
g59
sg5
I13
sg6
g7
sg8
I18
sg9
g60
sg11
Nsg12
S'Red Blueprint'
p70
sba(iitem
item_misc
p71
(dp72
g3
g59
sg5
I15
sg6
g7
sg8
I19
sg9
g60
sg11
Nsg12
S'Orange Blueprint'
p73
sba(iitem
item_misc
p74
(dp75
g3
g59
sg5
I17
sg6
g7
sg8
I20
sg9
g60
sg11
Nsg12
S'Purple Blueprint'
p76
sba(iitem
item_misc
p77
(dp78
g3
g4
sg5
I22
sg6
g7
sg8
I21
sg9
g10
sg11
Nsg12
S'Pilar'
p79
sba(iitem
item_misc
p80
(dp81
g3
g59
sg5
I19
sg6
g7
sg8
I22
sg9
g60
sg11
Nsg12
S'Orcish Blueprint'
p82
sba(iitem
item_misc
p83
(dp84
g3
g59
sg5
I21
sg6
g7
sg8
I23
sg9
g60
sg11
Nsg12
S'Nobel Blueprint'
p85
sba(iitem
item_misc
p86
(dp87
g3
g11
sg5
I0
sg6
g7
sg8
I24
sg9
g10
sg11
Nsg12
S'Bomb'
p88
sba(iitem
item_misc
p89
(dp90
g3
Nsg5
Nsg6
g7
sg8
I25
sg9
S'read'
p91
sg11
I0
sg12
S'Scroll of Identify'
p92
sba(iitem
item_misc
p93
(dp94
g3
Nsg5
Nsg6
g7
sg8
I26
sg9
g91
sg11
I0
sg12
S'Spellbook of Identify'
p95
sba(iitem
item_misc
p96
(dp97
g3
Nsg5
Nsg6
g7
sg8
I27
sg9
g91
sg11
I1
sg12
S'Scroll of Repair'
p98
sba(iitem
item_misc
p99
(dp100
g3
Nsg5
Nsg6
g7
sg8
I28
sg9
g91
sg11
I1
sg12
S'Spellbook of Repair'
p101
sba(iitem
item_misc
p102
(dp103
g3
Nsg5
Nsg6
g7
sg8
I29
sg9
g91
sg11
I2
sg12
S'Scroll of Healing'
p104
sba(iitem
item_misc
p105
(dp106
g3
Nsg5
Nsg6
g7
sg8
I30
sg9
g91
sg11
I2
sg12
S'Spellbook of Healing'
p107
sba(iitem
item_misc
p108
(dp109
g3
Nsg5
Nsg6
g7
sg8
I31
sg9
g91
sg11
I3
sg12
S'Scroll of Teleport'
p110
sba(iitem
item_misc
p111
(dp112
g3
Nsg5
Nsg6
g7
sg8
I32
sg9
g91
sg11
I3
sg12
S'Spellbook of Teleport'
p113
sba(iitem
item_misc
p114
(dp115
g3
Nsg5
Nsg6
g7
sg8
I33
sg9
g91
sg11
I4
sg12
S'Scroll of Return'
p116
sba(iitem
item_misc
p117
(dp118
g3
Nsg5
Nsg6
g7
sg8
I34
sg9
g91
sg11
I4
sg12
S'Spellbook of Return'
p119
sba(iitem
item_misc
p120
(dp121
g3
Nsg5
Nsg6
g7
sg8
I35
sg9
g91
sg11
I5
sg12
S'Scroll of Flames'
p122
sba(iitem
item_misc
p123
(dp124
g3
Nsg5
Nsg6
g7
sg8
I36
sg9
g91
sg11
I5
sg12
S'Spellbook of Flames'
p125
sba(iitem
item_misc
p126
(dp127
g3
Nsg5
Nsg6
g7
sg8
I37
sg9
g91
sg11
I6
sg12
S'Scroll of Healing Aura'
p128
sba(iitem
item_misc
p129
(dp130
g3
Nsg5
Nsg6
g7
sg8
I38
sg9
g91
sg11
I6
sg12
S'Spellbook of Healing Aura'
p131
sba(iitem
item_misc
p132
(dp133
g3
g59
sg5
I23
sg6
g7
sg8
I39
sg9
g60
sg11
Nsg12
S'Elfish Blueprint'
p134
sba(iitem
item_misc
p135
(dp136
g3
Nsg5
Nsg6
g7
sg8
I40
sg9
S'break'
p137
sg11
Nsg12
S'Heart-Shaped Crystal'
p138
sba(iitem
item_misc
p139
(dp140
g3
Nsg5
Nsg6
g7
sg8
I41
sg9
g137
sg11
Nsg12
S'Mysterious Blue Crystal'
p141
sba(iitem
item_misc
p142
(dp143
g3
Nsg5
Nsg6
g7
sg8
I42
sg9
g55
sg11
Nsg12
S'Anchanted Enhancemen Powder'
p144
sba(iitem
item_misc
p145
(dp146
g3
Nsg5
Nsg6
g7
sg8
I43
sg9
S'open'
p147
sg11
Nsg12
S'Heavy Bag'
p148
sba(iitem
item_misc
p149
(dp150
g3
Nsg5
Nsg6
g7
sg8
I44
sg9
S'light'
p151
sg11
Nsg12
S'Torch'
p152
sba(iitem
item_misc
p153
(dp154
g3
Nsg5
Nsg6
g7
sg8
I45
sg9
g91
sg11
I7
sg12
S'Scroll of Light'
p155
sba(iitem
item_misc
p156
(dp157
g3
Nsg5
Nsg6
g7
sg8
I46
sg9
g91
sg11
I7
sg12
S'Spellbook of Light'
p158
sba.