(lp1
(itile
tile
p2
(dp3
S'can_grown'
p4
I00
sS'name'
p5
S'Low water'
p6
sS'move_mes'
p7
S'Your feet become wet.'
p8
sS'techID'
p9
I0
sS'move'
p10
I01
sS'damage'
p11
I0
sS'tile_num'
p12
I0
sS'tile_category'
p13
S'misc'
p14
sS'build_here'
p15
I01
sS'destroy'
p16
I00
sS'damage_mes'
p17
NsS'replace'
p18
NsS'civilisation'
p19
I00
sS'transparent'
p20
I01
sba(itile
tile
p21
(dp22
g4
I00
sg5
S'Mud'
p23
sg7
S'The ground under your feet feels soft and wet.'
p24
sg9
I1
sg10
I01
sg11
I0
sg12
I1
sg13
g14
sg15
I01
sg16
I00
sg17
Nsg18
Nsg19
I00
sg20
I01
sba(itile
tile
p25
(dp26
g4
I00
sg5
S'Hot caveground'
p27
sg7
S'The ground under your feet feels like hot coals.'
p28
sg9
I2
sg10
I01
sg11
I0
sg12
I2
sg13
g14
sg15
I01
sg16
I00
sg17
Nsg18
Nsg19
I00
sg20
I01
sba(itile
tile
p29
(dp30
g4
I00
sg5
S'Water'
p31
sg7
S'None'
p32
sg9
I3
sg10
I00
sg11
I0
sg12
I3
sg13
g14
sg15
I01
sg16
I00
sg17
Nsg18
Nsg19
I00
sg20
I01
sba(itile
tile
p33
(dp34
g4
I00
sg5
S'Ore'
p35
sg7
S'You brake some ore out of the solid rock here.'
p36
sg9
I4
sg10
I00
sg11
I0
sg12
I4
sg13
g14
sg15
I01
sg16
I2
sg17
Nsg18
Nsg19
I00
sg20
I01
sba(itile
tile
p37
(dp38
g4
I00
sg5
S'Gem'
p39
sg7
S'You brake a gem out of the solid rock here.'
p40
sg9
I5
sg10
I00
sg11
I0
sg12
I5
sg13
g14
sg15
I01
sg16
I4
sg17
Nsg18
Nsg19
I00
sg20
I01
sba(itile
tile
p41
(dp42
g4
I00
sg5
S'Blue Mushroom'
p43
sg7
S'A blue mushroom grows here.'
p44
sg9
I6
sg10
I01
sg11
I0
sg12
I6
sg13
g14
sg15
I01
sg16
I00
sg17
Nsg18
Nsg19
I00
sg20
I01
sba(itile
tile
p45
(dp46
g4
I00
sg5
S'Brown Mushroom'
p47
sg7
S'A brown mushroom grows here.'
p48
sg9
I7
sg10
I01
sg11
I0
sg12
I7
sg13
g14
sg15
I01
sg16
I00
sg17
Nsg18
Nsg19
I00
sg20
I01
sba(itile
tile
p49
(dp50
g4
I00
sg5
S'Purple Mushroom'
p51
sg7
S'A purple mushroom grows here.'
p52
sg9
I8
sg10
I01
sg11
I0
sg12
I8
sg13
g14
sg15
I01
sg16
I00
sg17
Nsg18
Nsg19
I00
sg20
I01
sba(itile
tile
p53
(dp54
g4
I00
sg5
S'Lost Gem'
p55
sg7
S'Some gem lies on the ground right here.'
p56
sg9
I9
sg10
I01
sg11
I0
sg12
I9
sg13
g14
sg15
I01
sg16
I00
sg17
Nsg18
Nsg19
I00
sg20
I01
sba(itile
tile
p57
(dp58
g4
I00
sg5
S'Water Lily'
p59
sg7
S'A water lily grows here.'
p60
sg9
I10
sg10
I01
sg11
I0
sg12
I10
sg13
g14
sg15
I01
sg16
I00
sg17
Nsg18
Nsg19
I00
sg20
I01
sba(itile
tile
p61
(dp62
g4
I00
sg5
S'Lost Ore'
p63
sg7
S'Some ore lies on the ground right here.'
p64
sg9
I11
sg10
I01
sg11
I0
sg12
I11
sg13
g14
sg15
I01
sg16
I00
sg17
Nsg18
Nsg19
I00
sg20
I01
sba(itile
tile
p65
(dp66
g4
I00
sg5
S'Present'
p67
sg7
S'A present lies on the ground right here.'
p68
sg9
I12
sg10
I01
sg11
I0
sg12
I12
sg13
g14
sg15
I01
sg16
I00
sg17
Nsg18
Nsg19
I00
sg20
I01
sba(itile
tile
p69
(dp70
g4
I00
sg5
S'Water Lily with Blossom'
p71
sg7
S'A water lily with a beautiful blossom grows here.'
p72
sg9
I13
sg10
I01
sg11
I0
sg12
I13
sg13
g14
sg15
I01
sg16
I00
sg17
Nsg18
Nsg19
I00
sg20
I01
sba(itile
tile
p73
(dp74
g4
I00
sg5
S'Giant Mushroom'
p75
sg7
S'There is a giant mushroom here.'
p76
sg9
I14
sg10
I00
sg11
I0
sg12
I14
sg13
g14
sg15
I01
sg16
I00
sg17
Nsg18
Nsg19
I00
sg20
I01
sba.