(i__main__
player_class
p0
(dp1
S'style'
p2
I0
sS'name'
p3
S'TMG'
p4
sS'buffs'
p5
(ibuffs
buffs
p6
(dp7
S'blind'
p8
I0
sS'bleeding'
p9
I0
sS'light'
p10
I0
sS'confused'
p11
I0
sS'immobilized'
p12
I0
sS'hexed'
p13
I0
sS'poisoned'
p14
I0
sbsS'attribute'
p15
(iattribute
attribute
p16
(dp17
S'p_defense'
p18
I2
sS'pickaxe_power'
p19
I1
sS'p_strange'
p20
I2
sS'm_strange'
p21
I2
sS'hunger'
p22
I3600
sS'thirst_max'
p23
I2160
sS'hunger_max'
p24
I3600
sS'thirst'
p25
I2160
sS'tiredness_max'
p26
I5040
sS'tiredness'
p27
I5040
sS'max_lp'
p28
I10
sS'max_mp'
p29
I10
sS'm_defense'
p30
I2
sS'luck'
p31
I2
sbsS'pos'
p32
(lp33
I26
aI26
aI0
asS'difficulty'
p34
I4
sS'on_map'
p35
S'local_0_0'
p36
sS'mp'
p37
I10
sS'lp'
p38
I10
sS'gender'
p39
S'MALE'
p40
sS'lvl'
p41
I0
sS'xp'
p42
I0
sS'glob_pos'
p43
(lp44
I0
aI0
asS'inventory'
p45
(i__main__
inventory
p46
(dp47
S'wearing'
p48
(dp49
S'Body'
p50
(iitem
item_wear
p51
(dp52
S'classe'
p53
S'armor'
p54
sg3
S'wooden armor (97%)'
p55
sS'inv_slot'
p56
S'equipment'
p57
sS'defensibility_max'
p58
I1
sS'material'
p59
S'wooden'
p60
sS'state'
p61
I97
sS'cursed'
p62
I1
sS'defensibility'
p63
I1
sS'plus'
p64
I0
sS'worn_at'
p65
S'Body'
p66
sg15
(iattribute
attribute
p67
(dp68
g18
I5
sg20
I0
sg21
I0
sg22
I0
sg23
I0
sg24
I0
sg25
I0
sg19
I0
sg27
I0
sg31
I0
sg28
I0
sg29
I0
sg30
I0
sg26
I0
sbsS'known'
p69
I00
sbsS'Head'
p70
(iitem
item_wear
p71
(dp72
g53
S'helmet'
p73
sg3
S'wooden helmet (95%)'
p74
sg56
g57
sg58
I1
sg59
g60
sg61
I95
sg62
I1
sg63
I1
sg64
I0
sg65
S'Head'
p75
sg15
(iattribute
attribute
p76
(dp77
g18
I4
sg20
I0
sg21
I0
sg22
I0
sg23
I0
sg24
I0
sg25
I0
sg19
I0
sg27
I0
sg31
I0
sg28
I0
sg29
I0
sg30
I0
sg26
I0
sbsg69
I00
sbsS'Neck'
p78
(iitem
item_wear
p79
(dp80
g53
S'Nothing'
p81
sg3
S' Nothing'
p82
sg56
S'equipment'
p83
sg58
I1
sg59
S''
p84
sg61
I0
sg62
I1
sg63
I1
sg64
I0
sg65
S'NA'
p85
sg15
(iattribute
attribute
p86
(dp87
g18
I0
sg19
I0
sg20
I0
sg21
I0
sg22
I0
sg23
I0
sg24
I0
sg25
I0
sg26
I0
sg27
I0
sg31
I0
sg28
I0
sg29
I0
sg30
I0
sbsg69
I00
sbsS'Hold(R)'
p88
(iitem
item_wear
p89
(dp90
g53
S'axe'
p91
sg3
S'normal tin axe  (74%)'
p92
sg56
g83
sg58
I2
sg59
S'tin'
p93
sg61
I70
sg62
I1
sg63
I2
sg64
I0
sg65
S'Hold(R)'
p94
sg15
(iattribute
attribute
p95
(dp96
g18
I0
sg19
I0
sg20
I5
sg21
I0
sg22
I0
sg23
I0
sg24
I0
sg25
I0
sg26
I0
sg27
I0
sg31
I0
sg28
I0
sg29
I0
sg30
I0
sbsg69
I01
sbsS'Hand'
p97
g79
sS'Feet'
p98
(iitem
item_wear
p99
(dp100
g53
S'shoes'
p101
sg3
S'wooden shoes (95%)'
p102
sg56
g57
sg58
I1
sg59
g60
sg61
I95
sg62
I1
sg63
I1
sg64
I0
sg65
S'Feet'
p103
sg15
(iattribute
attribute
p104
(dp105
g18
I2
sg20
I0
sg21
I0
sg22
I0
sg23
I0
sg24
I0
sg25
I0
sg19
I0
sg27
I0
sg31
I0
sg28
I0
sg29
I0
sg30
I0
sg26
I0
sbsg69
I00
sbsS'Hold(L)'
p106
g79
sS'Legs'
p107
(iitem
item_wear
p108
(dp109
g53
S'cuisse'
p110
sg3
S'normal tin cuisse  (100%)'
p111
sg56
g83
sg58
I2
sg59
g93
sg61
I100
sg62
I1
sg63
I1
sg64
I0
sg65
g107
sg15
(iattribute
attribute
p112
(dp113
g18
I4
sg19
I0
sg20
I0
sg21
I0
sg22
I0
sg23
I0
sg24
I0
sg25
I0
sg26
I0
sg27
I0
sg31
I0
sg28
I0
sg29
I0
sg30
I0
sbsg69
I01
sbssS'blueprint'
p114
(iitem
item_misc
p115
(dp116
S'place_cat'
p117
S'building'
p118
sS'place_num'
p119
I0
sg56
S'misc'
p120
sS'techID'
p121
I15
sS'effect'
p122
NsS'use_name'
p123
S'apply'
p124
sg3
S'Ordenary Blueprint'
p125
sbsS'inv_mes'
p126
S'~*~'
p127
sS'food'
p128
(lp129
(iitem
item_food
p130
(dp131
S'satisfy_thirst'
p132
I-400
sg3
S'Purple Mushroom'
p133
sS'rise_lp_max'
p134
I0
sg56
S'food'
p135
sg121
I52
sS'heal'
p136
I0
sS'satisfy_tiredness'
p137
I800
sS'eat_name'
p138
S'eat'
p139
sS'rotten'
p140
I00
sS'protection'
p141
I00
sS'rise_hunger_max'
p142
I0
sS'give_seed'
p143
I0
sS'life_period'
p144
I3
sS'rise_tiredness_max'
p145
I0
sS'satisfy_hunger'
p146
I200
sS'eat_mes'
p147
S'You eat a refreshing purple mushroom.'
p148
sS'rise_thirst_max'
p149
I0
sba(iitem
item_food
p150
(dp151
g132
I0
sg3
S'Brown Mushroom'
p152
sg134
I0
sg56
g135
sg121
I51
sg136
I0
sg137
I0
sg138
g139
sg140
I00
sg141
I00
sg142
I0
sg143
I0
sg144
I3
sg145
I0
sg146
I800
sg147
S'You eat a tasty brown mushroom.'
p153
sg149
I0
sba(iitem
item_food
p154
(dp155
g132
I1040
sg3
S'Blue Mushroom'
p156
sg134
I0
sg56
g135
sg121
I50
sg136
I0
sg137
I0
sg138
g139
sg140
I00
sg141
I00
sg142
I0
sg143
I0
sg144
I3
sg145
I0
sg146
I200
sg147
S'You eat a jucy blue mushroom.'
p157
sg149
I0
sba(iitem
item_food
p158
(dp159
g132
I-400
sg3
g133
sg134
I0
sg56
g135
sg121
I52
sg136
I0
sg137
I800
sg138
g139
sg140
I00
sg141
I00
sg142
I0
sg143
I0
sg144
I3
sg145
I0
sg146
I200
sg147
g148
sg149
I0
sba(iitem
item_food
p160
(dp161
g132
I0
sg3
g152
sg134
I0
sg56
g135
sg121
I51
sg136
I0
sg137
I0
sg138
g139
sg140
I00
sg141
I00
sg142
I0
sg143
I0
sg144
I3
sg145
I0
sg146
I800
sg147
g153
sg149
I0
sba(iitem
item_food
p162
(dp163
g132
I0
sg3
g152
sg134
I0
sg56
g135
sg121
I51
sg136
I0
sg137
I0
sg138
g139
sg140
I00
sg141
I00
sg142
I0
sg143
I0
sg144
I3
sg145
I0
sg146
I800
sg147
g153
sg149
I0
sba(iitem
item_food
p164
(dp165
g132
I0
sg3
g152
sg134
I0
sg56
g135
sg121
I51
sg136
I0
sg137
I0
sg138
g139
sg140
I00
sg141
I00
sg142
I0
sg143
I0
sg144
I3
sg145
I0
sg146
I800
sg147
g153
sg149
I0
sbasS'misc'
p166
(lp167
g79
a(iitem
item_misc
p168
(dp169
g117
S'functional'
p170
sg119
I8
sg56
g120
sg121
I2
sg122
Nsg123
S'place'
p171
sg3
S'Bed'
p172
sba(iitem
item_misc
p173
(dp174
g117
Nsg119
Nsg56
g120
sg121
I44
sg122
Nsg123
S'light'
p175
sg3
S'Torch'
p176
sbag79
ag79
ag79
ag79
asS'equipment'
p177
(lp178
(iitem
item_wear
p179
(dp180
g53
S'pickaxe'
p181
sg3
S'normal wooden pickaxe  (68%)'
p182
sg56
g83
sg58
I1
sg59
S'wooden'
p183
sg61
I68
sg62
I1
sg63
I1
sg64
I0
sg65
g94
sg15
(iattribute
attribute
p184
(dp185
g18
I0
sg19
I2
sg20
I2
sg21
I0
sg22
I0
sg23
I0
sg24
I0
sg25
I0
sg26
I0
sg27
I0
sg31
I0
sg28
I0
sg29
I0
sg30
I0
sbsg69
I01
sba(iitem
item_wear
p186
(dp187
g53
S'amulet'
p188
sg3
S'tin amulet (61%)'
p189
sg56
g57
sg58
I2
sg59
S'tin'
p190
sg61
I61
sg62
I2
sg63
I2
sg64
I2
sg65
S'Neck'
p191
sg15
(iattribute
attribute
p192
(dp193
g18
I0
sg20
I0
sg21
I0
sg22
I0
sg23
I0
sg24
I0
sg25
I0
sg19
I0
sg27
I0
sg31
I0
sg28
I0
sg29
I0
sg30
I16
sg26
I0
sbsg69
I00
sba(iitem
item_wear
p194
(dp195
g53
S'wand'
p196
sg3
S'cursed steel wand +1 (36%)'
p197
sg56
g57
sg58
I4
sg59
S'steel'
p198
sg61
I36
sg62
I0
sg63
I4
sg64
I1
sg65
S'Hold(L)'
p199
sg15
(iattribute
attribute
p200
(dp201
g18
I0
sg20
I0
sg21
I0
sg22
I0
sg23
I0
sg24
I0
sg25
I0
sg19
I0
sg27
I0
sg31
I0
sg28
I0
sg29
I0
sg30
I0
sg26
I0
sbsg69
I01
sbag79
a(iitem
item_wear
p202
(dp203
g53
S'axe'
p204
sg3
S'wooden axe (100%)'
p205
sg56
g57
sg58
I1
sg59
g60
sg61
I100
sg62
I1
sg63
I1
sg64
I0
sg65
S'Hold(R)'
p206
sg15
(iattribute
attribute
p207
(dp208
g18
I0
sg20
I4
sg21
I0
sg22
I0
sg23
I0
sg24
I0
sg25
I0
sg19
I0
sg27
I0
sg31
I0
sg28
I0
sg29
I0
sg30
I0
sg26
I0
sbsg69
I00
sba(iitem
item_wear
p209
(dp210
g53
S'pickaxe'
p211
sg3
S'wooden pickaxe (100%)'
p212
sg56
g57
sg58
I1
sg59
g60
sg61
I100
sg62
I1
sg63
I1
sg64
I0
sg65
g206
sg15
(iattribute
attribute
p213
(dp214
g18
I0
sg20
I2
sg21
I0
sg22
I0
sg23
I0
sg24
I0
sg25
I0
sg19
I2
sg27
I0
sg31
I0
sg28
I0
sg29
I0
sg30
I0
sg26
I0
sbsg69
I00
sbag79
asS'materials'
p215
(iitem
materials
p216
(dp217
S'stone'
p218
I40
sS'gem_max'
p219
I15
sS'wood_max'
p220
I50
sS'herb'
p221
I1
sS'wood'
p222
I8
sS'ore_max'
p223
I15
sS'seeds'
p224
I0
sS'stone_max'
p225
I40
sS'herb_max'
p226
I15
sS'ore'
p227
I1
sS'seeds_max'
p228
I40
sS'gem'
p229
I1
sbsS'item_change'
p230
g79
sS'nothing'
p231
g79
sbsb.