(lp1
(itile
tile
p2
(dp3
S'can_grown'
p4
I00
sS'name'
p5
S'Floor'
p6
sS'tile_color'
p7
S'light_red'
p8
sS'move_mes'
p9
S'You walk over a wooden floor.'
p10
sS'techID'
p11
I66
sS'move'
p12
I01
sS'damage'
p13
I0
sS'replace'
p14
NsS'build_here'
p15
I01
sS'transparency'
p16
I01
sS'destroy'
p17
I00
sS'damage_mes'
p18
NsS'tile_pos'
p19
(I7
I5
tp20
sS'civilisation'
p21
I01
sS'transparent'
p22
I01
sba(itile
tile
p23
(dp24
g4
I00
sg5
S'Wall'
p25
sg7
S'red'
p26
sg9
S'There is a wall here.'
p27
sg11
I67
sg12
I00
sg13
I0
sg14
Nsg15
I01
sg16
I00
sg17
I00
sg18
Nsg19
(I2
I5
tp28
sg21
I01
sg22
I01
sba(itile
tile
p29
(dp30
g4
I00
sg5
S'Door open'
p31
sg7
S'white'
p32
sg9
S'You walk trough a open door.'
p33
sg11
I68
sg12
I01
sg13
I0
sg14
Nsg15
I00
sg16
I01
sg17
I00
sg18
Nsg19
(I7
I10
tp34
sg21
I01
sg22
I01
sba(itile
tile
p35
(dp36
g4
I00
sg5
S'Door closed'
p37
sg7
g32
sg9
S'The door swings open.'
p38
sg11
I69
sg12
I00
sg13
I0
sg14
g29
sg15
I01
sg16
I00
sg17
I1
sg18
Nsg19
(I6
I6
tp39
sg21
I01
sg22
I01
sba(itile
tile
p40
(dp41
g4
I00
sg5
S'Agriculture'
p42
sg7
S'yellow'
p43
sg9
S'You are walking on bare fields.'
p44
sg11
I70
sg12
I01
sg13
I0
sg14
Nsg15
I01
sg16
I01
sg17
I00
sg18
Nsg19
(I9
I7
tp45
sg21
I01
sg22
I01
sba(itile
tile
p46
(dp47
g4
I00
sg5
S'Budding Acriculture (Overworld)'
p48
sg7
g43
sg9
S'Something starts to grow at this field.'
p49
sg11
I71
sg12
I01
sg13
I0
sg14
Nsg15
I01
sg16
I01
sg17
I00
sg18
Nsg19
(I8
I8
tp50
sg21
I01
sg22
I01
sba(itile
tile
p51
(dp52
g4
I00
sg5
S'Budding Acriculture (Caves)'
p53
sg7
g43
sg9
g49
sg11
I72
sg12
I01
sg13
I0
sg14
Nsg15
I01
sg16
I01
sg17
I00
sg18
Nsg19
(I9
I8
tp54
sg21
I01
sg22
I01
sba(itile
tile
p55
(dp56
g4
I00
sg5
S'Acriculture Crops'
p57
sg7
g43
sg9
S'The crops stand high here.'
p58
sg11
I73
sg12
I01
sg13
I0
sg14
Nsg15
I01
sg16
I01
sg17
I00
sg18
Nsg19
(I8
I10
tp59
sg21
I01
sg22
I01
sba(itile
tile
p60
(dp61
g4
I00
sg5
S'Acriculture Mushroom'
p62
sg7
g43
sg9
S'A great mushroom grows at this field.'
p63
sg11
I74
sg12
I01
sg13
I0
sg14
Nsg15
I01
sg16
I01
sg17
I00
sg18
Nsg19
(I8
I9
tp64
sg21
I01
sg22
I01
sba(itile
tile
p65
(dp66
g4
I00
sg5
S'Blue Floor'
p67
sg7
g8
sg9
S'You walk over a blue floor.'
p68
sg11
I75
sg12
I01
sg13
I0
sg14
Nsg15
I01
sg16
I01
sg17
I00
sg18
Nsg19
(I7
I4
tp69
sg21
I01
sg22
I01
sba(itile
tile
p70
(dp71
g4
I00
sg5
S'Blue Wall'
p72
sg7
g26
sg9
g27
sg11
I76
sg12
I00
sg13
I0
sg14
Nsg15
I01
sg16
I00
sg17
I00
sg18
Nsg19
(I2
I4
tp73
sg21
I01
sg22
I01
sba(itile
tile
p74
(dp75
g4
I00
sg5
S'Green Floor'
p76
sg7
g8
sg9
S'You walk over a green floor.'
p77
sg11
I77
sg12
I01
sg13
I0
sg14
Nsg15
I01
sg16
I01
sg17
I00
sg18
Nsg19
(I7
I3
tp78
sg21
I01
sg22
I01
sba(itile
tile
p79
(dp80
g4
I00
sg5
S'Green Wall'
p81
sg7
g26
sg9
g27
sg11
I78
sg12
I00
sg13
I0
sg14
Nsg15
I01
sg16
I00
sg17
I00
sg18
Nsg19
(I2
I3
tp82
sg21
I01
sg22
I01
sba(itile
tile
p83
(dp84
g4
I00
sg5
S'Red Floor'
p85
sg7
g8
sg9
S'You walk over a red floor.'
p86
sg11
I79
sg12
I01
sg13
I0
sg14
Nsg15
I01
sg16
I01
sg17
I00
sg18
Nsg19
(I7
I0
tp87
sg21
I01
sg22
I01
sba(itile
tile
p88
(dp89
g4
I00
sg5
S'Red Wall'
p90
sg7
g26
sg9
g27
sg11
I80
sg12
I00
sg13
I0
sg14
Nsg15
I01
sg16
I00
sg17
I00
sg18
Nsg19
(I2
I0
tp91
sg21
I01
sg22
I01
sba(itile
tile
p92
(dp93
g4
I00
sg5
S'Orange Floor'
p94
sg7
g8
sg9
S'You walk over a orange floor.'
p95
sg11
I81
sg12
I01
sg13
I0
sg14
Nsg15
I01
sg16
I01
sg17
I00
sg18
Nsg19
(I7
I2
tp96
sg21
I01
sg22
I01
sba(itile
tile
p97
(dp98
g4
I00
sg5
S'Orange Wall'
p99
sg7
g26
sg9
g27
sg11
I82
sg12
I00
sg13
I0
sg14
Nsg15
I01
sg16
I00
sg17
I00
sg18
Nsg19
(I2
I2
tp100
sg21
I01
sg22
I01
sba(itile
tile
p101
(dp102
g4
I00
sg5
S'Purple Floor'
p103
sg7
g8
sg9
S'You walk over a purple floor.'
p104
sg11
I83
sg12
I01
sg13
I0
sg14
Nsg15
I01
sg16
I01
sg17
I00
sg18
Nsg19
(I7
I1
tp105
sg21
I01
sg22
I01
sba(itile
tile
p106
(dp107
g4
I00
sg5
S'Purple Wall'
p108
sg7
g26
sg9
g27
sg11
I84
sg12
I00
sg13
I0
sg14
Nsg15
I01
sg16
I00
sg17
I00
sg18
Nsg19
(I2
I1
tp109
sg21
I01
sg22
I01
sba(itile
tile
p110
(dp111
g4
I00
sg5
S'Orcish Floor'
p112
sg7
g8
sg9
S'You walk over a hard soil.'
p113
sg11
I85
sg12
I01
sg13
I0
sg14
Nsg15
I01
sg16
I01
sg17
I00
sg18
Nsg19
(I0
I5
tp114
sg21
I01
sg22
I01
sba(itile
tile
p115
(dp116
g4
I00
sg5
S'Orcish Wall'
p117
sg7
g26
sg9
g27
sg11
I86
sg12
I00
sg13
I0
sg14
Nsg15
I01
sg16
I00
sg17
I00
sg18
Nsg19
(I0
I4
tp118
sg21
I01
sg22
I01
sba(itile
tile
p119
(dp120
g4
I00
sg5
S'Nobel Floor'
p121
sg7
g8
sg9
S'You walk over a floor made of stone.'
p122
sg11
I87
sg12
I01
sg13
I0
sg14
Nsg15
I01
sg16
I01
sg17
I00
sg18
Nsg19
(I0
I3
tp123
sg21
I01
sg22
I01
sba(itile
tile
p124
(dp125
g4
I00
sg5
S'Nobel Wall'
p126
sg7
g26
sg9
g27
sg11
I88
sg12
I00
sg13
I0
sg14
Nsg15
I01
sg16
I00
sg17
I00
sg18
Nsg19
(I2
I6
tp127
sg21
I01
sg22
I01
sba(itile
tile
p128
(dp129
g4
I00
sg5
S'Elfish Floor'
p130
sg7
g8
sg9
S'You walk over cobbled floor.'
p131
sg11
I89
sg12
I01
sg13
I0
sg14
Nsg15
I01
sg16
I01
sg17
I00
sg18
Nsg19
(I7
I8
tp132
sg21
I01
sg22
I01
sba(itile
tile
p133
(dp134
g4
I00
sg5
S'Elfish Wall'
p135
sg7
g26
sg9
g27
sg11
I90
sg12
I00
sg13
I0
sg14
Nsg15
I01
sg16
I00
sg17
I00
sg18
Nsg19
(I7
I6
tp136
sg21
I01
sg22
I01
sba.