(lp1
(itile
tile
p2
(dp3
S'can_grown'
p4
I00
sS'name'
p5
S'Floor'
p6
sS'tile_color'
p7
S'light_red'
p8
sS'move_mes'
p9
S'You walk over a wooden floor.'
p10
sS'techID'
p11
I66
sS'move'
p12
I01
sS'damage'
p13
I0
sS'replace'
p14
NsS'build_here'
p15
I01
sS'destroy'
p16
I00
sS'damage_mes'
p17
NsS'tile_pos'
p18
(I7
I5
tp19
sS'civilisation'
p20
I01
sS'transparent'
p21
I01
sba(itile
tile
p22
(dp23
g4
I00
sg5
S'Wall'
p24
sg7
S'red'
p25
sg9
S'There is a wall here.'
p26
sg11
I67
sg12
I00
sg13
I0
sg14
Nsg15
I01
sg16
I00
sg17
Nsg18
(I2
I5
tp27
sg20
I01
sg21
I01
sba(itile
tile
p28
(dp29
g4
I00
sg5
S'Door open'
p30
sg7
S'white'
p31
sg9
S'You walk trough a open door.'
p32
sg11
I68
sg12
I01
sg13
I0
sg14
Nsg15
I00
sg16
I00
sg17
Nsg18
(I7
I10
tp33
sg20
I01
sg21
I01
sba(itile
tile
p34
(dp35
g4
I00
sg5
S'Door closed'
p36
sg7
g31
sg9
S'The door swings open.'
p37
sg11
I69
sg12
I00
sg13
I0
sg14
g28
sg15
I01
sg16
I1
sg17
Nsg18
(I6
I6
tp38
sg20
I01
sg21
I01
sba(itile
tile
p39
(dp40
g4
I00
sg5
S'Agriculture'
p41
sg7
S'yellow'
p42
sg9
S'You are walking on bare fields.'
p43
sg11
I70
sg12
I01
sg13
I0
sg14
Nsg15
I01
sg16
I00
sg17
Nsg18
(I9
I7
tp44
sg20
I01
sg21
I01
sba(itile
tile
p45
(dp46
g4
I00
sg5
S'Budding Acriculture (Overworld)'
p47
sg7
g42
sg9
S'Something starts to grow at this field.'
p48
sg11
I71
sg12
I01
sg13
I0
sg14
Nsg15
I01
sg16
I00
sg17
Nsg18
(I8
I8
tp49
sg20
I01
sg21
I01
sba(itile
tile
p50
(dp51
g4
I00
sg5
S'Budding Acriculture (Caves)'
p52
sg7
g42
sg9
g48
sg11
I72
sg12
I01
sg13
I0
sg14
Nsg15
I01
sg16
I00
sg17
Nsg18
(I9
I8
tp53
sg20
I01
sg21
I01
sba(itile
tile
p54
(dp55
g4
I00
sg5
S'Acriculture Crops'
p56
sg7
g42
sg9
S'The crops stand high here.'
p57
sg11
I73
sg12
I01
sg13
I0
sg14
Nsg15
I01
sg16
I00
sg17
Nsg18
(I8
I10
tp58
sg20
I01
sg21
I01
sba(itile
tile
p59
(dp60
g4
I00
sg5
S'Acriculture Mushroom'
p61
sg7
g42
sg9
S'A great mushroom grows at this field.'
p62
sg11
I74
sg12
I01
sg13
I0
sg14
Nsg15
I01
sg16
I00
sg17
Nsg18
(I8
I9
tp63
sg20
I01
sg21
I01
sba(itile
tile
p64
(dp65
g4
I00
sg5
S'Blue Floor'
p66
sg7
g8
sg9
S'You walk over a blue floor.'
p67
sg11
I75
sg12
I01
sg13
I0
sg14
Nsg15
I01
sg16
I00
sg17
Nsg18
(I7
I4
tp68
sg20
I01
sg21
I01
sba(itile
tile
p69
(dp70
g4
I00
sg5
S'Blue Wall'
p71
sg7
g25
sg9
g26
sg11
I76
sg12
I00
sg13
I0
sg14
Nsg15
I01
sg16
I00
sg17
Nsg18
(I2
I4
tp72
sg20
I01
sg21
I01
sba(itile
tile
p73
(dp74
g4
I00
sg5
S'Green Floor'
p75
sg7
g8
sg9
S'You walk over a green floor.'
p76
sg11
I77
sg12
I01
sg13
I0
sg14
Nsg15
I01
sg16
I00
sg17
Nsg18
(I7
I3
tp77
sg20
I01
sg21
I01
sba(itile
tile
p78
(dp79
g4
I00
sg5
S'Green Wall'
p80
sg7
g25
sg9
g26
sg11
I78
sg12
I00
sg13
I0
sg14
Nsg15
I01
sg16
I00
sg17
Nsg18
(I2
I3
tp81
sg20
I01
sg21
I01
sba(itile
tile
p82
(dp83
g4
I00
sg5
S'Red Floor'
p84
sg7
g8
sg9
S'You walk over a red floor.'
p85
sg11
I79
sg12
I01
sg13
I0
sg14
Nsg15
I01
sg16
I00
sg17
Nsg18
(I7
I0
tp86
sg20
I01
sg21
I01
sba(itile
tile
p87
(dp88
g4
I00
sg5
S'Red Wall'
p89
sg7
g25
sg9
g26
sg11
I80
sg12
I00
sg13
I0
sg14
Nsg15
I01
sg16
I00
sg17
Nsg18
(I2
I0
tp90
sg20
I01
sg21
I01
sba(itile
tile
p91
(dp92
g4
I00
sg5
S'Orange Floor'
p93
sg7
g8
sg9
S'You walk over a orange floor.'
p94
sg11
I81
sg12
I01
sg13
I0
sg14
Nsg15
I01
sg16
I00
sg17
Nsg18
(I7
I2
tp95
sg20
I01
sg21
I01
sba(itile
tile
p96
(dp97
g4
I00
sg5
S'Orange Wall'
p98
sg7
g25
sg9
g26
sg11
I82
sg12
I00
sg13
I0
sg14
Nsg15
I01
sg16
I00
sg17
Nsg18
(I2
I2
tp99
sg20
I01
sg21
I01
sba(itile
tile
p100
(dp101
g4
I00
sg5
S'Purple Floor'
p102
sg7
g8
sg9
S'You walk over a purple floor.'
p103
sg11
I83
sg12
I01
sg13
I0
sg14
Nsg15
I01
sg16
I00
sg17
Nsg18
(I7
I1
tp104
sg20
I01
sg21
I01
sba(itile
tile
p105
(dp106
g4
I00
sg5
S'Purple Wall'
p107
sg7
g25
sg9
g26
sg11
I84
sg12
I00
sg13
I0
sg14
Nsg15
I01
sg16
I00
sg17
Nsg18
(I2
I1
tp108
sg20
I01
sg21
I01
sba(itile
tile
p109
(dp110
g4
I00
sg5
S'Orcish Floor'
p111
sg7
g8
sg9
S'You walk over a hard soil.'
p112
sg11
I85
sg12
I01
sg13
I0
sg14
Nsg15
I01
sg16
I00
sg17
Nsg18
(I0
I5
tp113
sg20
I01
sg21
I01
sba(itile
tile
p114
(dp115
g4
I00
sg5
S'Orcish Wall'
p116
sg7
g25
sg9
g26
sg11
I86
sg12
I00
sg13
I0
sg14
Nsg15
I01
sg16
I00
sg17
Nsg18
(I0
I4
tp117
sg20
I01
sg21
I01
sba(itile
tile
p118
(dp119
g4
I00
sg5
S'Nobel Floor'
p120
sg7
g8
sg9
S'You walk over a floor made of stone.'
p121
sg11
I87
sg12
I01
sg13
I0
sg14
Nsg15
I01
sg16
I00
sg17
Nsg18
(I0
I3
tp122
sg20
I01
sg21
I01
sba(itile
tile
p123
(dp124
g4
I00
sg5
S'Nobel Wall'
p125
sg7
g25
sg9
g26
sg11
I88
sg12
I00
sg13
I0
sg14
Nsg15
I01
sg16
I00
sg17
Nsg18
(I2
I6
tp126
sg20
I01
sg21
I01
sba(itile
tile
p127
(dp128
g4
I00
sg5
S'Elfish Floor'
p129
sg7
g8
sg9
S'You walk over cobbled floor.'
p130
sg11
I89
sg12
I01
sg13
I0
sg14
Nsg15
I01
sg16
I00
sg17
Nsg18
(I7
I8
tp131
sg20
I01
sg21
I01
sba(itile
tile
p132
(dp133
g4
I00
sg5
S'Elfish Wall'
p134
sg7
g25
sg9
g26
sg11
I90
sg12
I00
sg13
I0
sg14
Nsg15
I01
sg16
I00
sg17
Nsg18
(I7
I6
tp135
sg20
I01
sg21
I01
sba.