(lp0
(imonster
monster
p1
(dp2
S'worn_equipment'
p3
(I0
I1
I0
I0
I0
tp4
sS'attack_were'
p5
S'Feet'
p6
sS'name'
p7
S'dryade'
p8
sS'move_border'
p9
I2
sS'techID'
p10
I5
sS'lp'
p11
I2
sS'AI_style'
p12
S'ignore'
p13
sS'ignore_damage'
p14
I00
sS'corps_lvl'
p15
I1
sS'sprite_pos'
p16
(I2
I2
tp17
sS'move_done'
p18
I0
sS'basic_attribute'
p19
(iattribute
attribute
p20
(dp21
S'p_defense'
p22
I2
sS'pickaxe_power'
p23
I1
sS'p_strange'
p24
I2
sS'm_strange'
p25
I2
sS'hunger'
p26
I3600
sS'thirst_max'
p27
I2160
sS'hunger_max'
p28
I3600
sS'thirst'
p29
I2160
sS'tiredness_max'
p30
I5040
sS'tiredness'
p31
I5040
sS'max_lp'
p32
I2
sS'max_mp'
p33
I2
sS'm_defense'
p34
I2
sS'luck'
p35
I1
sbsS'ignore_water'
p36
I00
sS'attribute_prev'
p37
(I0
I1
I2
I2
I1
tp38
sS'behavior'
p39
S'talk'
p40
sS'possible_effect'
p41
NsS'lvl'
p42
I0
sS'message'
p43
S'The dryade smiles mysterious.'
p44
sS'effect_probability'
p45
I0
sS'effect_duration'
p46
I0
sS'corps_style'
p47
g8
sba(imonster
monster
p48
(dp49
g3
(I1
I0
I1
I0
I0
tp50
sg5
g6
sg7
S'tame orc'
p51
sg9
I2
sg10
I6
sg11
I2
sg12
g13
sg14
I00
sg15
I1
sg16
(I0
I4
tp52
sg18
I0
sg19
(iattribute
attribute
p53
(dp54
g22
I2
sg23
I1
sg24
I2
sg25
I2
sg26
I3600
sg27
I2160
sg28
I3600
sg29
I2160
sg30
I5040
sg31
I5040
sg32
I2
sg33
I2
sg34
I2
sg35
I1
sbsg36
I00
sg37
(I2
I1
I0
I1
I1
tp55
sg39
g40
sg41
Nsg42
I0
sg43
S'The tame orc geets you.'
p56
sg45
I0
sg46
I0
sg47
S'human'
p57
sba(imonster
monster
p58
(dp59
g3
(I0
I1
I0
I1
I1
tp60
sg5
g6
sg7
S'golden naga'
p61
sg9
I2
sg10
I7
sg11
I2
sg12
g13
sg14
I00
sg15
I1
sg16
(I1
I9
tp62
sg18
I0
sg19
(iattribute
attribute
p63
(dp64
g22
I2
sg23
I1
sg24
I2
sg25
I2
sg26
I3600
sg27
I2160
sg28
I3600
sg29
I2160
sg30
I5040
sg31
I5040
sg32
I2
sg33
I2
sg34
I2
sg35
I1
sbsg36
I01
sg37
(I0
I1
I2
I2
I1
tp65
sg39
g40
sg41
Nsg42
I0
sg43
S'The golden naga blinks.'
p66
sg45
I0
sg46
I0
sg47
g57
sba(imonster
monster
p67
(dp68
g3
(I1
I1
I1
I1
I1
tp69
sg5
g6
sg7
S'wood elf'
p70
sg9
I2
sg10
I8
sg11
I2
sg12
g13
sg14
I00
sg15
I1
sg16
(I0
I0
tp71
sg18
I0
sg19
(iattribute
attribute
p72
(dp73
g22
I2
sg23
I1
sg24
I2
sg25
I2
sg26
I3600
sg27
I2160
sg28
I3600
sg29
I2160
sg30
I5040
sg31
I5040
sg32
I2
sg33
I2
sg34
I2
sg35
I1
sbsg36
I00
sg37
(I0
I2
I0
I2
I1
tp74
sg39
g40
sg41
Nsg42
I0
sg43
S'The wood elf waves.'
p75
sg45
I0
sg46
I0
sg47
g57
sba.