(lp0
(imonster
monster
p1
(dp2
S'behavior'
p3
S'talk'
p4
sS'name'
p5
S'dryade'
p6
sS'move_border'
p7
I0
sS'attribute'
p8
(iattribute
attribute
p9
(dp10
S'p_defense'
p11
I0
sS'pickaxe_power'
p12
I0
sS'p_strange'
p13
I0
sS'm_strange'
p14
I0
sS'hunger'
p15
I0
sS'thirst_max'
p16
I0
sS'hunger_max'
p17
I0
sS'thirst'
p18
I0
sS'tiredness_max'
p19
I0
sS'tiredness'
p20
I0
sS'max_lp'
p21
I1
sS'max_mp'
p22
I0
sS'm_defense'
p23
I0
sS'luck'
p24
I0
sbsS'move_done'
p25
I0
sS'ignore_damage'
p26
I00
sS'corps_lvl'
p27
I1
sS'sprite_pos'
p28
(I2
I2
tp29
sS'attack_were'
p30
(S'Head'
p31
S'Body'
p32
S'Legs'
p33
tp34
sS'AI_style'
p35
S'ignore'
p36
sS'ignore_water'
p37
I01
sS'lp'
p38
I1
sS'techID'
p39
I5
sS'possible_effect'
p40
NsS'message'
p41
S'The dryade smiles mysterious.'
p42
sS'effect_probability'
p43
I0
sS'effect_duration'
p44
I0
sS'corps_style'
p45
g6
sba(imonster
monster
p46
(dp47
g3
g4
sg5
S'tame orc'
p48
sg7
I0
sg8
(iattribute
attribute
p49
(dp50
g11
I0
sg12
I0
sg13
I0
sg14
I0
sg15
I0
sg16
I0
sg17
I0
sg18
I0
sg19
I0
sg20
I0
sg21
I1
sg22
I0
sg23
I0
sg24
I0
sbsg25
I0
sg26
I00
sg27
I1
sg28
(I0
I4
tp51
sg30
(g31
g32
g33
tp52
sg35
g36
sg37
I01
sg38
I1
sg39
I6
sg40
Nsg41
S'The tame orc greets you.'
p53
sg43
I0
sg44
I0
sg45
S'human'
p54
sba(imonster
monster
p55
(dp56
g3
g4
sg5
S'golden naga'
p57
sg7
I0
sg8
(iattribute
attribute
p58
(dp59
g11
I0
sg12
I0
sg13
I0
sg14
I0
sg15
I0
sg16
I0
sg17
I0
sg18
I0
sg19
I0
sg20
I0
sg21
I1
sg22
I0
sg23
I0
sg24
I0
sbsg25
I0
sg26
I00
sg27
I1
sg28
(I1
I9
tp60
sg30
(g31
g32
g33
tp61
sg35
g36
sg37
I01
sg38
I1
sg39
I7
sg40
Nsg41
S'The golden naga blinks.'
p62
sg43
I0
sg44
I0
sg45
g54
sba(imonster
monster
p63
(dp64
g3
g4
sg5
S'wood elf'
p65
sg7
I0
sg8
(iattribute
attribute
p66
(dp67
g11
I0
sg12
I0
sg13
I0
sg14
I0
sg15
I0
sg16
I0
sg17
I0
sg18
I0
sg19
I0
sg20
I0
sg21
I1
sg22
I0
sg23
I0
sg24
I0
sbsg25
I0
sg26
I00
sg27
I1
sg28
(I0
I0
tp68
sg30
(g31
g32
g33
tp69
sg35
g36
sg37
I01
sg38
I1
sg39
I8
sg40
Nsg41
S'The wood elf waves.'
p70
sg43
I0
sg44
I0
sg45
g54
sba.