(lp0
(iitem
item_food
p1
(dp2
S'satisfy_thirst'
p3
I600
sS'name'
p4
S'Red Berries'
p5
sS'rise_lp_max'
p6
I0
sS'inv_slot'
p7
S'food'
p8
sS'techID'
p9
I46
sS'heal'
p10
I0
sS'satisfy_tiredness'
p11
I0
sS'eat_mes'
p12
S'You eat some sweet red berries.'
p13
sS'life_period'
p14
I1
sS'rotten'
p15
I00
sS'protection'
p16
I01
sS'rise_hunger_max'
p17
I0
sS'rise_tiredness_max'
p18
I0
sS'satisfy_hunger'
p19
I200
sS'eat_name'
p20
S'eat'
p21
sS'give_seed'
p22
I1
sS'rise_thirst_max'
p23
I0
sba(iitem
item_food
p24
(dp25
g3
I1040
sg4
S'Blue Mushroom'
p26
sg6
I0
sg7
g8
sg9
I47
sg10
I0
sg11
I0
sg12
S'You eat a jucy blue mushroom.'
p27
sg14
I4
sg15
I00
sg16
I01
sg17
I0
sg18
I0
sg19
I200
sg20
g21
sg22
I0
sg23
I0
sba(iitem
item_food
p28
(dp29
g3
I0
sg4
S'Brown Mushroom'
p30
sg6
I0
sg7
g8
sg9
I48
sg10
I0
sg11
I0
sg12
S'You eat a tasty brown mushroom.'
p31
sg14
I4
sg15
I00
sg16
I01
sg17
I0
sg18
I0
sg19
I800
sg20
g21
sg22
I0
sg23
I0
sba(iitem
item_food
p32
(dp33
g3
I-400
sg4
S'Purple Mushroom'
p34
sg6
I0
sg7
g8
sg9
I49
sg10
I0
sg11
I800
sg12
S'You eat a refreshing purple mushroom.'
p35
sg14
I4
sg15
I00
sg16
I01
sg17
I0
sg18
I0
sg19
I200
sg20
g21
sg22
I0
sg23
I0
sba(iitem
item_food
p36
(dp37
g3
I0
sg4
S'Fish'
p38
sg6
I0
sg7
g8
sg9
I50
sg10
I0
sg11
I0
sg12
S'Bah! This is raw!.'
p39
sg14
I1
sg15
I00
sg16
I01
sg17
I0
sg18
I0
sg19
I600
sg20
g21
sg22
I0
sg23
I0
sba(iitem
item_food
p40
(dp41
g3
I0
sg4
S'Grilled Fish'
p42
sg6
I0
sg7
g8
sg9
I51
sg10
I0
sg11
I0
sg12
S'Delicious!'
p43
sg14
I5
sg15
I00
sg16
I01
sg17
I0
sg18
I0
sg19
I1200
sg20
g21
sg22
I0
sg23
I0
sba(iitem
item_food
p44
(dp45
g3
I-400
sg4
S'Crops'
p46
sg6
I0
sg7
g8
sg9
I52
sg10
I0
sg11
I0
sg12
S'Dry and tasteless.'
p47
sg14
I00
sg15
I00
sg16
I01
sg17
I0
sg18
I0
sg19
I100
sg20
g21
sg22
I3
sg23
I0
sba(iitem
item_food
p48
(dp49
g3
I0
sg4
S'Bread'
p50
sg6
I0
sg7
g8
sg9
I53
sg10
I0
sg11
I0
sg12
S'You eat a bread.'
p51
sg14
I6
sg15
I00
sg16
I01
sg17
I0
sg18
I0
sg19
I1200
sg20
g21
sg22
I0
sg23
I0
sba(iitem
item_food
p52
(dp53
g3
I-400
sg4
S'Rusk'
p54
sg6
I0
sg7
g8
sg9
I54
sg10
I0
sg11
I0
sg12
S'You eat some rusk.'
p55
sg14
I00
sg15
I00
sg16
I01
sg17
I0
sg18
I0
sg19
I1200
sg20
g21
sg22
I0
sg23
I0
sba(iitem
item_food
p56
(dp57
g3
I0
sg4
S'Raw Meat'
p58
sg6
I0
sg7
g8
sg9
I55
sg10
I0
sg11
I0
sg12
S'Bah! This is Raw!'
p59
sg14
I2
sg15
I00
sg16
I01
sg17
I0
sg18
I0
sg19
I700
sg20
g21
sg22
I0
sg23
I0
sba(iitem
item_food
p60
(dp61
g3
I0
sg4
S'Grilled Meat'
p62
sg6
I0
sg7
g8
sg9
I56
sg10
I0
sg11
I0
sg12
g43
sg14
I6
sg15
I00
sg16
I01
sg17
I0
sg18
I0
sg19
I1400
sg20
g21
sg22
I0
sg23
I0
sba(iitem
item_food
p63
(dp64
g3
I200
sg4
S'Cultivated Mushroom'
p65
sg6
I0
sg7
g8
sg9
I57
sg10
I0
sg11
I0
sg12
S'Tasteless...'
p66
sg14
I6
sg15
I00
sg16
I01
sg17
I0
sg18
I0
sg19
I200
sg20
g21
sg22
I2
sg23
I0
sba(iitem
item_food
p67
(dp68
g3
I0
sg4
S'Grilled Mushroom'
p69
sg6
I0
sg7
g8
sg9
I58
sg10
I0
sg11
I0
sg12
g43
sg14
I6
sg15
I00
sg16
I01
sg17
I0
sg18
I0
sg19
I600
sg20
g21
sg22
I0
sg23
I0
sba(iitem
item_food
p70
(dp71
g3
I0
sg4
S'Potion of healing'
p72
sg6
I0
sg7
g8
sg9
I59
sg10
I7
sg11
I0
sg12
S'You drink a potion of healing.'
p73
sg14
I00
sg15
I00
sg16
I01
sg17
I0
sg18
I0
sg19
I0
sg20
S'drink'
p74
sg22
I0
sg23
I0
sba(iitem
item_food
p75
(dp76
g3
I0
sg4
S'Potion of feeding'
p77
sg6
I0
sg7
g8
sg9
I60
sg10
I0
sg11
I0
sg12
S'You drink a potion of feeding.'
p78
sg14
I00
sg15
I00
sg16
I01
sg17
I0
sg18
I0
sg19
I700
sg20
g74
sg22
I0
sg23
I0
sba(iitem
item_food
p79
(dp80
g3
I700
sg4
S'Potion of refreshing'
p81
sg6
I0
sg7
g8
sg9
I61
sg10
I0
sg11
I0
sg12
S'You drink a potion of refreshing.'
p82
sg14
I00
sg15
I00
sg16
I01
sg17
I0
sg18
I0
sg19
I0
sg20
g74
sg22
I0
sg23
I0
sba(iitem
item_food
p83
(dp84
g3
I0
sg4
S'Potion of vitalising'
p85
sg6
I0
sg7
g8
sg9
I62
sg10
I0
sg11
I700
sg12
S'You drink a potion of vitalising.'
p86
sg14
I00
sg15
I00
sg16
I01
sg17
I0
sg18
I0
sg19
I0
sg20
g74
sg22
I0
sg23
I0
sba(iitem
item_food
p87
(dp88
g3
I0
sg4
S'Strong potion of healing'
p89
sg6
I0
sg7
g8
sg9
I63
sg10
I15
sg11
I0
sg12
S'You drink a strong potion of healing.'
p90
sg14
I00
sg15
I00
sg16
I01
sg17
I0
sg18
I0
sg19
I0
sg20
g74
sg22
I0
sg23
I0
sba(iitem
item_food
p91
(dp92
g3
I0
sg4
S'Strong potion of feeding'
p93
sg6
I0
sg7
g8
sg9
I64
sg10
I0
sg11
I0
sg12
S'You drink a strong potion of feeding.'
p94
sg14
I00
sg15
I00
sg16
I01
sg17
I0
sg18
I0
sg19
I1400
sg20
g74
sg22
I0
sg23
I0
sba(iitem
item_food
p95
(dp96
g3
I1400
sg4
S'Strong potion of refreshing'
p97
sg6
I0
sg7
g8
sg9
I65
sg10
I0
sg11
I0
sg12
S'You drink a strong potion of refreshing.'
p98
sg14
I00
sg15
I00
sg16
I01
sg17
I0
sg18
I0
sg19
I0
sg20
g74
sg22
I0
sg23
I0
sba(iitem
item_food
p99
(dp100
g3
I0
sg4
S'Strong potion of vitalising'
p101
sg6
I0
sg7
g8
sg9
I66
sg10
I0
sg11
I1400
sg12
S'You drink a strong potion of vitalising.'
p102
sg14
I00
sg15
I00
sg16
I01
sg17
I0
sg18
I0
sg19
I0
sg20
g74
sg22
I0
sg23
I0
sba(iitem
item_food
p103
(dp104
g3
I0
sg4
S'Potion of hunger'
p105
sg6
I0
sg7
g8
sg9
I67
sg10
I0
sg11
I0
sg12
S'Your stomach grows.'
p106
sg14
I00
sg15
I00
sg16
I01
sg17
I100
sg18
I0
sg19
I0
sg20
g74
sg22
I0
sg23
I0
sba(iitem
item_food
p107
(dp108
g3
I0
sg4
S'Potion of thirst'
p109
sg6
I0
sg7
g8
sg9
I68
sg10
I0
sg11
I0
sg12
S'You feel like a camel.'
p110
sg14
I00
sg15
I00
sg16
I01
sg17
I0
sg18
I0
sg19
I0
sg20
g74
sg22
I0
sg23
I100
sba(iitem
item_food
p111
(dp112
g3
I0
sg4
S'Potion of tiredness'
p113
sg6
I0
sg7
g8
sg9
I69
sg10
I0
sg11
I0
sg12
S'You feel like a owl.'
p114
sg14
I00
sg15
I00
sg16
I01
sg17
I0
sg18
I100
sg19
I0
sg20
g74
sg22
I0
sg23
I0
sba(iitem
item_food
p115
(dp116
g3
I0
sg4
S'Potion of life'
p117
sg6
I1
sg7
g8
sg9
I70
sg10
I0
sg11
I0
sg12
S'You feel stronger now.'
p118
sg14
I00
sg15
I00
sg16
I01
sg17
I0
sg18
I0
sg19
I0
sg20
g74
sg22
I0
sg23
I0
sba(iitem
item_food
p119
(dp120
g3
I0
sg4
S'Jellyfish'
p121
sg6
I0
sg7
g8
sg9
I71
sg10
I-2
sg11
I0
sg12
S'Ugh... That must have been poisoness.'
p122
sg14
I00
sg15
I00
sg16
I01
sg17
I0
sg18
I0
sg19
I0
sg20
g21
sg22
I0
sg23
I0
sba(iitem
item_food
p123
(dp124
g3
I0
sg4
S'Grilled Jellyfish'
p125
sg6
I0
sg7
g8
sg9
I72
sg10
I0
sg11
I0
sg12
S'Tastes like chicken...'
p126
sg14
I00
sg15
I00
sg16
I01
sg17
I0
sg18
I0
sg19
I800
sg20
g21
sg22
I0
sg23
I0
sba(iitem
item_food
p127
(dp128
g3
I1000
sg4
S'Blue Berries'
p129
sg6
I0
sg7
g8
sg9
I73
sg10
I0
sg11
I0
sg12
S'You eat some juicy blue berries.'
p130
sg14
I1
sg15
I00
sg16
I01
sg17
I0
sg18
I0
sg19
I100
sg20
g21
sg22
I1
sg23
I0
sba(iitem
item_food
p131
(dp132
g3
I200
sg4
S'Yellow Berries'
p133
sg6
I0
sg7
g8
sg9
I74
sg10
I0
sg11
I0
sg12
S'You eat some tasty yellow berries.'
p134
sg14
I1
sg15
I00
sg16
I01
sg17
I0
sg18
I0
sg19
I700
sg20
g21
sg22
I1
sg23
I0
sba(iitem
item_food
p135
(dp136
g3
I200
sg4
S'Red Jelly'
p137
sg6
I0
sg7
g8
sg9
I75
sg10
I0
sg11
I0
sg12
S'You eat some tasty red jelly.'
p138
sg14
I00
sg15
I00
sg16
I01
sg17
I0
sg18
I0
sg19
I300
sg20
g21
sg22
I0
sg23
I0
sba(iitem
item_food
p139
(dp140
g3
I200
sg4
S'Blue Jelly'
p141
sg6
I0
sg7
g8
sg9
I76
sg10
I0
sg11
I0
sg12
S'You eat some tasty blue jelly.'
p142
sg14
I00
sg15
I00
sg16
I01
sg17
I0
sg18
I0
sg19
I200
sg20
g21
sg22
I0
sg23
I0
sba(iitem
item_food
p143
(dp144
g3
I100
sg4
S'Yellow Jelly'
p145
sg6
I0
sg7
g8
sg9
I77
sg10
I0
sg11
I0
sg12
S'You eat some tasty yellow jelly.'
p146
sg14
I00
sg15
I00
sg16
I01
sg17
I0
sg18
I0
sg19
I800
sg20
g21
sg22
I0
sg23
I0
sba.