(lp1
(itile
tile
p2
(dp3
S'can_grown'
p4
I00
sS'name'
p5
S'Border'
p6
sS'move_mes'
p7
S'HERE BE DRAGONS'
p8
sS'techID'
p9
I23
sS'move'
p10
I00
sS'damage'
p11
I0
sS'tile_num'
p12
I0
sS'tile_category'
p13
S'functional'
p14
sS'build_here'
p15
I00
sS'destroy'
p16
I00
sS'damage_mes'
p17
NsS'replace'
p18
NsS'civilisation'
p19
I00
sS'transparent'
p20
I01
sba(itile
tile
p21
(dp22
g4
I00
sg5
S'Stair down'
p23
sg7
S'There is a down leading stairway here.'
p24
sg9
I24
sg10
I01
sg11
I0
sg12
I1
sg13
g14
sg15
I00
sg16
I00
sg17
Nsg18
Nsg19
I01
sg20
I01
sba(itile
tile
p25
(dp26
g4
I00
sg5
S'Stair up'
p27
sg7
S'There is a up leading stairway here.'
p28
sg9
I25
sg10
I01
sg11
I0
sg12
I2
sg13
g14
sg15
I00
sg16
I00
sg17
Nsg18
Nsg19
I01
sg20
I01
sba(itile
tile
p29
(dp30
g4
I00
sg5
S'Empty Chest'
p31
sg7
S'Here is a empty chest.'
p32
sg9
I26
sg10
I01
sg11
I0
sg12
I3
sg13
g14
sg15
I01
sg16
I00
sg17
Nsg18
Nsg19
I01
sg20
I01
sba(itile
tile
p33
(dp34
g4
I00
sg5
S'Chest'
p35
sg7
S'Here is a chest.'
p36
sg9
I27
sg10
I01
sg11
I0
sg12
I4
sg13
g14
sg15
I01
sg16
I00
sg17
Nsg18
g29
sg19
I01
sg20
I01
sba(itile
tile
p37
(dp38
g4
I00
sg5
S'Stack'
p39
sg7
S'Something lies around here:'
p40
sg9
I28
sg10
I01
sg11
I0
sg12
I5
sg13
g14
sg15
I01
sg16
I00
sg17
Nsg18
Nsg19
I00
sg20
I01
sba(itile
tile
p41
(dp42
g4
I00
sg5
S'Humanoid remains'
p43
sg7
S'Here are some humanoid remains.'
p44
sg9
I29
sg10
I01
sg11
I0
sg12
I6
sg13
g14
sg15
I01
sg16
I00
sg17
Nsg18
Nsg19
I00
sg20
I01
sba(itile
tile
p45
(dp46
g4
I00
sg5
S'Fontain'
p47
sg7
S'You stand in front of a fontain.'
p48
sg9
I30
sg10
I01
sg11
I0
sg12
I7
sg13
g14
sg15
I01
sg16
I00
sg17
Nsg18
Nsg19
I00
sg20
I01
sba(itile
tile
p49
(dp50
g4
I00
sg5
S'Bed'
p51
sg7
S'You stand in front of a confortable bed.'
p52
sg9
I31
sg10
I01
sg11
I0
sg12
I8
sg13
g14
sg15
I01
sg16
I00
sg17
Nsg18
Nsg19
I01
sg20
I01
sba(itile
tile
p53
(dp54
g4
I00
sg5
S"Carpenter's Workbench"
p55
sg7
S"You stand in front of a carpenter's workbench."
p56
sg9
I32
sg10
I01
sg11
I0
sg12
I9
sg13
g14
sg15
I01
sg16
I00
sg17
Nsg18
Nsg19
I01
sg20
I01
sba(itile
tile
p57
(dp58
g4
I00
sg5
S"Carvers's Workbench"
p59
sg7
S"You stand in front of a carvers's workbench."
p60
sg9
I33
sg10
I01
sg11
I0
sg12
I10
sg13
g14
sg15
I01
sg16
I00
sg17
Nsg18
Nsg19
I01
sg20
I01
sba(itile
tile
p61
(dp62
g4
I00
sg5
S"Stonecutter's Workbench"
p63
sg7
S"You stand in front of a stonecutter's workbench."
p64
sg9
I34
sg10
I01
sg11
I0
sg12
I11
sg13
g14
sg15
I01
sg16
I00
sg17
Nsg18
Nsg19
I01
sg20
I01
sba(itile
tile
p65
(dp66
g4
I00
sg5
S"Forger's Workbench"
p67
sg7
S"You stand in front of a forger's workbench."
p68
sg9
I35
sg10
I01
sg11
I0
sg12
I12
sg13
g14
sg15
I01
sg16
I00
sg17
Nsg18
Nsg19
I01
sg20
I01
sba(itile
tile
p69
(dp70
g4
I00
sg5
S"Alchemists's Workshop"
p71
sg7
S"You stand in front of a alchemists's workshop."
p72
sg9
I36
sg10
I01
sg11
I0
sg12
I13
sg13
g14
sg15
I01
sg16
I00
sg17
Nsg18
Nsg19
I01
sg20
I01
sba(itile
tile
p73
(dp74
g4
I00
sg5
S'Furnace'
p75
sg7
S'You stand in front of a furnace.'
p76
sg9
I37
sg10
I01
sg11
I0
sg12
I14
sg13
g14
sg15
I01
sg16
I00
sg17
Nsg18
Nsg19
I01
sg20
I01
sba(itile
tile
p77
(dp78
g4
I00
sg5
S'Altar'
p79
sg7
S'You stand in front of an holy altar.'
p80
sg9
I38
sg10
I01
sg11
I0
sg12
I15
sg13
g14
sg15
I01
sg16
I00
sg17
Nsg18
Nsg19
I01
sg20
I01
sba(itile
tile
p81
(dp82
g4
I00
sg5
S'Table'
p83
sg7
S'You stand on a table.'
p84
sg9
I39
sg10
I00
sg11
I0
sg12
I16
sg13
g14
sg15
I01
sg16
I00
sg17
Nsg18
Nsg19
I01
sg20
I01
sba(itile
tile
p85
(dp86
g4
I00
sg5
S'Wooden seat'
p87
sg7
S'Here is a confortable looking wooden seat.'
p88
sg9
I40
sg10
I01
sg11
I0
sg12
I17
sg13
g14
sg15
I01
sg16
I00
sg17
Nsg18
Nsg19
I01
sg20
I01
sba(itile
tile
p89
(dp90
g4
I00
sg5
S'Stone seat'
p91
sg7
S'Here is a confortable looking stone seat.'
p92
sg9
I41
sg10
I01
sg11
I0
sg12
I18
sg13
g14
sg15
I01
sg16
I00
sg17
Nsg18
Nsg19
I01
sg20
I01
sba(itile
tile
p93
(dp94
g4
I00
sg5
S'Bookshelf'
p95
sg7
S'Here is a bookshelf'
p96
sg9
I42
sg10
I00
sg11
I0
sg12
I19
sg13
g14
sg15
I01
sg16
I00
sg17
Nsg18
Nsg19
I01
sg20
I01
sba(itile
tile
p97
(dp98
g4
I00
sg5
S'Divine gift'
p99
sg7
S'The gods blessed this world here.'
p100
sg9
I43
sg10
I01
sg11
I-1
sg12
I20
sg13
g14
sg15
I00
sg16
I00
sg17
Nsg18
Nsg19
I01
sg20
I01
sba(itile
tile
p101
(dp102
g4
I00
sg5
S'Animal remains'
p103
sg7
S'Here are some animal remains.'
p104
sg9
I44
sg10
I01
sg11
I0
sg12
I21
sg13
g14
sg15
I01
sg16
I00
sg17
Nsg18
Nsg19
I01
sg20
I01
sba(itile
tile
p105
(dp106
g4
I00
sg5
S'Pilar'
p107
sg7
S'You stand in front of a pilar.'
p108
sg9
I45
sg10
I00
sg11
I0
sg12
I22
sg13
g14
sg15
I01
sg16
I00
sg17
Nsg18
Nsg19
I01
sg20
I01
sba(itile
tile
p109
(dp110
g4
I00
sg5
S'Master Forge'
p111
sg7
S'You stand in front of a legendary master forge.'
p112
sg9
I46
sg10
I01
sg11
I0
sg12
I23
sg13
g14
sg15
I00
sg16
I00
sg17
Nsg18
Nsg19
I00
sg20
I01
sba.