(lp1
(itile
tile
p2
(dp3
S'can_grown'
p4
I00
sS'name'
p5
S'Border'
p6
sS'tile_color'
p7
S'white'
p8
sS'move_mes'
p9
S'HERE BE DRAGONS'
p10
sS'techID'
p11
I23
sS'move'
p12
I00
sS'damage'
p13
I0
sS'replace'
p14
NsS'build_here'
p15
I00
sS'destroy'
p16
I00
sS'damage_mes'
p17
NsS'tile_pos'
p18
(I9
I1
tp19
sS'civilisation'
p20
I00
sS'transparent'
p21
I01
sba(itile
tile
p22
(dp23
g4
I00
sg5
S'Stair down'
p24
sg7
g8
sg9
S'There is a down leading stairway here.'
p25
sg11
I24
sg12
I01
sg13
I0
sg14
Nsg15
I00
sg16
I00
sg17
Nsg18
(I3
I4
tp26
sg20
I01
sg21
I01
sba(itile
tile
p27
(dp28
g4
I00
sg5
S'Stair up'
p29
sg7
g8
sg9
S'There is a up leading stairway here.'
p30
sg11
I25
sg12
I01
sg13
I0
sg14
Nsg15
I00
sg16
I00
sg17
Nsg18
(I3
I3
tp31
sg20
I01
sg21
I01
sba(itile
tile
p32
(dp33
g4
I00
sg5
S'Empty Chest'
p34
sg7
g8
sg9
S'Here is a empty chest.'
p35
sg11
I26
sg12
I01
sg13
I0
sg14
Nsg15
I01
sg16
I00
sg17
Nsg18
(I5
I10
tp36
sg20
I01
sg21
I01
sba(itile
tile
p37
(dp38
g4
I00
sg5
S'Chest'
p39
sg7
g8
sg9
S'Here is a chest.'
p40
sg11
I27
sg12
I01
sg13
I0
sg14
g32
sg15
I01
sg16
I00
sg17
Nsg18
(I6
I9
tp41
sg20
I01
sg21
I01
sba(itile
tile
p42
(dp43
g4
I00
sg5
S'Stack'
p44
sg7
S'red'
p45
sg9
S'Something lies around here:'
p46
sg11
I28
sg12
I01
sg13
I0
sg14
Nsg15
I01
sg16
I00
sg17
Nsg18
(I3
I5
tp47
sg20
I00
sg21
I01
sba(itile
tile
p48
(dp49
g4
I00
sg5
S'Humanoid remains'
p50
sg7
g8
sg9
S'Here are some humanoid remains.'
p51
sg11
I29
sg12
I01
sg13
I0
sg14
Nsg15
I01
sg16
I00
sg17
Nsg18
(I3
I9
tp52
sg20
I00
sg21
I01
sba(itile
tile
p53
(dp54
g4
I00
sg5
S'Fontain'
p55
sg7
S'blue'
p56
sg9
S'You stand in front of a fontain.'
p57
sg11
I30
sg12
I01
sg13
I0
sg14
Nsg15
I01
sg16
I00
sg17
Nsg18
(I6
I3
tp58
sg20
I00
sg21
I01
sba(itile
tile
p59
(dp60
g4
I00
sg5
S'Bed'
p61
sg7
g8
sg9
S'You stand in front of a confortable bed.'
p62
sg11
I31
sg12
I01
sg13
I0
sg14
Nsg15
I01
sg16
I00
sg17
Nsg18
(I8
I6
tp63
sg20
I01
sg21
I01
sba(itile
tile
p64
(dp65
g4
I00
sg5
S"Carpenter's Workbench"
p66
sg7
g8
sg9
S"You stand in front of a carpenter's workbench."
p67
sg11
I32
sg12
I01
sg13
I0
sg14
Nsg15
I01
sg16
I00
sg17
Nsg18
(I8
I2
tp68
sg20
I01
sg21
I01
sba(itile
tile
p69
(dp70
g4
I00
sg5
S"Carvers's Workbench"
p71
sg7
g8
sg9
S"You stand in front of a carvers's workbench."
p72
sg11
I33
sg12
I01
sg13
I0
sg14
Nsg15
I01
sg16
I00
sg17
Nsg18
(I8
I1
tp73
sg20
I01
sg21
I01
sba(itile
tile
p74
(dp75
g4
I00
sg5
S"Stonecutter's Workbench"
p76
sg7
g8
sg9
S"You stand in front of a stonecutter's workbench."
p77
sg11
I34
sg12
I01
sg13
I0
sg14
Nsg15
I01
sg16
I00
sg17
Nsg18
(I3
I2
tp78
sg20
I01
sg21
I01
sba(itile
tile
p79
(dp80
g4
I00
sg5
S"Forger's Workbench"
p81
sg7
g8
sg9
S"You stand in front of a forger's workbench."
p82
sg11
I35
sg12
I01
sg13
I0
sg14
Nsg15
I01
sg16
I00
sg17
Nsg18
(I8
I0
tp83
sg20
I01
sg21
I01
sba(itile
tile
p84
(dp85
g4
I00
sg5
S"Alchemists's Workshop"
p86
sg7
g8
sg9
S"You stand in front of a alchemists's workshop."
p87
sg11
I36
sg12
I01
sg13
I0
sg14
Nsg15
I01
sg16
I00
sg17
Nsg18
(I8
I4
tp88
sg20
I01
sg21
I01
sba(itile
tile
p89
(dp90
g4
I00
sg5
S'Furnace'
p91
sg7
g8
sg9
S'You stand in front of a furnace.'
p92
sg11
I37
sg12
I01
sg13
I0
sg14
Nsg15
I01
sg16
I00
sg17
Nsg18
(I5
I2
tp93
sg20
I01
sg21
I01
sba(itile
tile
p94
(dp95
g4
I00
sg5
S'Altar'
p96
sg7
g8
sg9
S'You stand in front of an holy altar.'
p97
sg11
I38
sg12
I01
sg13
I0
sg14
Nsg15
I01
sg16
I00
sg17
Nsg18
(I8
I3
tp98
sg20
I01
sg21
I01
sba(itile
tile
p99
(dp100
g4
I00
sg5
S'Table'
p101
sg7
g8
sg9
S'You stand on a table.'
p102
sg11
I39
sg12
I00
sg13
I0
sg14
Nsg15
I01
sg16
I00
sg17
Nsg18
(I3
I1
tp103
sg20
I01
sg21
I01
sba(itile
tile
p104
(dp105
g4
I00
sg5
S'Wooden seat'
p106
sg7
g8
sg9
S'Here is a confortable looking wooden seat.'
p107
sg11
I40
sg12
I01
sg13
I0
sg14
Nsg15
I01
sg16
I00
sg17
Nsg18
(I3
I6
tp108
sg20
I01
sg21
I01
sba(itile
tile
p109
(dp110
g4
I00
sg5
S'Stone seat'
p111
sg7
g8
sg9
S'Here is a confortable looking stone seat.'
p112
sg11
I41
sg12
I01
sg13
I0
sg14
Nsg15
I01
sg16
I00
sg17
Nsg18
(I3
I7
tp113
sg20
I01
sg21
I01
sba(itile
tile
p114
(dp115
g4
I00
sg5
S'Bookshelf'
p116
sg7
g8
sg9
S'Here is a bookshelf'
p117
sg11
I42
sg12
I00
sg13
I0
sg14
Nsg15
I01
sg16
I00
sg17
Nsg18
(I9
I2
tp118
sg20
I01
sg21
I01
sba(itile
tile
p119
(dp120
g4
I00
sg5
S'Divine gift'
p121
sg7
S'light_purple'
p122
sg9
S'The gods blessed this world here.'
p123
sg11
I43
sg12
I01
sg13
I-1
sg14
Nsg15
I00
sg16
I00
sg17
Nsg18
(I6
I8
tp124
sg20
I01
sg21
I01
sba(itile
tile
p125
(dp126
g4
I00
sg5
S'Animal remains'
p127
sg7
g8
sg9
S'Here are some animal remains.'
p128
sg11
I44
sg12
I01
sg13
I0
sg14
Nsg15
I01
sg16
I00
sg17
Nsg18
(I8
I7
tp129
sg20
I01
sg21
I01
sba(itile
tile
p130
(dp131
g4
I00
sg5
S'Pilar'
p132
sg7
g8
sg9
S'You stand in front of a pilar.'
p133
sg11
I45
sg12
I00
sg13
I0
sg14
Nsg15
I01
sg16
I00
sg17
Nsg18
(I5
I9
tp134
sg20
I01
sg21
I01
sba(itile
tile
p135
(dp136
g4
I00
sg5
S'Master Forge'
p137
sg7
S'purple'
p138
sg9
S'You stand in front of a legendary master forge.'
p139
sg11
I46
sg12
I01
sg13
I0
sg14
Nsg15
I00
sg16
I00
sg17
Nsg18
(I0
I6
tp140
sg20
I00
sg21
I01
sba.