(lp1
(itile
tile
p2
(dp3
S'can_grown'
p4
I00
sS'name'
p5
S'Border'
p6
sS'tile_color'
p7
S'white'
p8
sS'move_mes'
p9
S'HERE BE DRAGONS'
p10
sS'techID'
p11
I23
sS'move'
p12
I00
sS'damage'
p13
I0
sS'replace'
p14
NsS'build_here'
p15
I00
sS'transparency'
p16
I00
sS'destroy'
p17
I00
sS'damage_mes'
p18
NsS'tile_pos'
p19
(I9
I1
tp20
sS'civilisation'
p21
I00
sS'transparent'
p22
I01
sba(itile
tile
p23
(dp24
g4
I00
sg5
S'Stair down'
p25
sg7
g8
sg9
S'There is a down leading stairway here.'
p26
sg11
I24
sg12
I01
sg13
I0
sg14
Nsg15
I00
sg16
I01
sg17
I00
sg18
Nsg19
(I3
I4
tp27
sg21
I01
sg22
I01
sba(itile
tile
p28
(dp29
g4
I00
sg5
S'Stair up'
p30
sg7
g8
sg9
S'There is a up leading stairway here.'
p31
sg11
I25
sg12
I01
sg13
I0
sg14
Nsg15
I00
sg16
I01
sg17
I00
sg18
Nsg19
(I3
I3
tp32
sg21
I01
sg22
I01
sba(itile
tile
p33
(dp34
g4
I00
sg5
S'Empty Chest'
p35
sg7
g8
sg9
S'Here is a empty chest.'
p36
sg11
I26
sg12
I01
sg13
I0
sg14
Nsg15
I01
sg16
I01
sg17
I00
sg18
Nsg19
(I5
I10
tp37
sg21
I01
sg22
I01
sba(itile
tile
p38
(dp39
g4
I00
sg5
S'Chest'
p40
sg7
g8
sg9
S'Here is a chest.'
p41
sg11
I27
sg12
I01
sg13
I0
sg14
g33
sg15
I01
sg16
I01
sg17
I00
sg18
Nsg19
(I6
I9
tp42
sg21
I01
sg22
I01
sba(itile
tile
p43
(dp44
g4
I00
sg5
S'Stack'
p45
sg7
S'red'
p46
sg9
S'Something lies around here:'
p47
sg11
I28
sg12
I01
sg13
I0
sg14
Nsg15
I01
sg16
I01
sg17
I00
sg18
Nsg19
(I3
I5
tp48
sg21
I00
sg22
I01
sba(itile
tile
p49
(dp50
g4
I00
sg5
S'Humanoid remains'
p51
sg7
g8
sg9
S'Here are some humanoid remains.'
p52
sg11
I29
sg12
I01
sg13
I0
sg14
Nsg15
I01
sg16
I01
sg17
I00
sg18
Nsg19
(I3
I9
tp53
sg21
I00
sg22
I01
sba(itile
tile
p54
(dp55
g4
I00
sg5
S'Fontain'
p56
sg7
S'blue'
p57
sg9
S'You stand in front of a fontain.'
p58
sg11
I30
sg12
I01
sg13
I0
sg14
Nsg15
I01
sg16
I01
sg17
I00
sg18
Nsg19
(I6
I3
tp59
sg21
I00
sg22
I01
sba(itile
tile
p60
(dp61
g4
I00
sg5
S'Bed'
p62
sg7
g8
sg9
S'You stand in front of a confortable bed.'
p63
sg11
I31
sg12
I01
sg13
I0
sg14
Nsg15
I01
sg16
I01
sg17
I00
sg18
Nsg19
(I8
I6
tp64
sg21
I01
sg22
I01
sba(itile
tile
p65
(dp66
g4
I00
sg5
S"Carpenter's Workbench"
p67
sg7
g8
sg9
S"You stand in front of a carpenter's workbench."
p68
sg11
I32
sg12
I01
sg13
I0
sg14
Nsg15
I01
sg16
I01
sg17
I00
sg18
Nsg19
(I8
I2
tp69
sg21
I01
sg22
I01
sba(itile
tile
p70
(dp71
g4
I00
sg5
S"Carvers's Workbench"
p72
sg7
g8
sg9
S"You stand in front of a carvers's workbench."
p73
sg11
I33
sg12
I01
sg13
I0
sg14
Nsg15
I01
sg16
I01
sg17
I00
sg18
Nsg19
(I8
I1
tp74
sg21
I01
sg22
I01
sba(itile
tile
p75
(dp76
g4
I00
sg5
S"Stonecutter's Workbench"
p77
sg7
g8
sg9
S"You stand in front of a stonecutter's workbench."
p78
sg11
I34
sg12
I01
sg13
I0
sg14
Nsg15
I01
sg16
I01
sg17
I00
sg18
Nsg19
(I3
I2
tp79
sg21
I01
sg22
I01
sba(itile
tile
p80
(dp81
g4
I00
sg5
S"Forger's Workbench"
p82
sg7
g8
sg9
S"You stand in front of a forger's workbench."
p83
sg11
I35
sg12
I01
sg13
I0
sg14
Nsg15
I01
sg16
I01
sg17
I00
sg18
Nsg19
(I8
I0
tp84
sg21
I01
sg22
I01
sba(itile
tile
p85
(dp86
g4
I00
sg5
S"Alchemists's Workshop"
p87
sg7
g8
sg9
S"You stand in front of a alchemists's workshop."
p88
sg11
I36
sg12
I01
sg13
I0
sg14
Nsg15
I01
sg16
I01
sg17
I00
sg18
Nsg19
(I8
I4
tp89
sg21
I01
sg22
I01
sba(itile
tile
p90
(dp91
g4
I00
sg5
S'Furnace'
p92
sg7
g8
sg9
S'You stand in front of a furnace.'
p93
sg11
I37
sg12
I01
sg13
I0
sg14
Nsg15
I01
sg16
I01
sg17
I00
sg18
Nsg19
(I5
I2
tp94
sg21
I01
sg22
I01
sba(itile
tile
p95
(dp96
g4
I00
sg5
S'Altar'
p97
sg7
g8
sg9
S'You stand in front of an holy altar.'
p98
sg11
I38
sg12
I01
sg13
I0
sg14
Nsg15
I01
sg16
I01
sg17
I00
sg18
Nsg19
(I8
I3
tp99
sg21
I01
sg22
I01
sba(itile
tile
p100
(dp101
g4
I00
sg5
S'Table'
p102
sg7
g8
sg9
S'You stand on a table.'
p103
sg11
I39
sg12
I00
sg13
I0
sg14
Nsg15
I01
sg16
I01
sg17
I00
sg18
Nsg19
(I3
I1
tp104
sg21
I01
sg22
I01
sba(itile
tile
p105
(dp106
g4
I00
sg5
S'Wooden seat'
p107
sg7
g8
sg9
S'Here is a confortable looking wooden seat.'
p108
sg11
I40
sg12
I01
sg13
I0
sg14
Nsg15
I01
sg16
I01
sg17
I00
sg18
Nsg19
(I3
I6
tp109
sg21
I01
sg22
I01
sba(itile
tile
p110
(dp111
g4
I00
sg5
S'Stone seat'
p112
sg7
g8
sg9
S'Here is a confortable looking stone seat.'
p113
sg11
I41
sg12
I01
sg13
I0
sg14
Nsg15
I01
sg16
I01
sg17
I00
sg18
Nsg19
(I3
I7
tp114
sg21
I01
sg22
I01
sba(itile
tile
p115
(dp116
g4
I00
sg5
S'Bookshelf'
p117
sg7
g8
sg9
S'Here is a bookshelf'
p118
sg11
I42
sg12
I00
sg13
I0
sg14
Nsg15
I01
sg16
I00
sg17
I00
sg18
Nsg19
(I9
I2
tp119
sg21
I01
sg22
I01
sba(itile
tile
p120
(dp121
g4
I00
sg5
S'Divine gift'
p122
sg7
S'light_purple'
p123
sg9
S'The gods blessed this world here.'
p124
sg11
I43
sg12
I01
sg13
I-1
sg14
Nsg15
I00
sg16
I01
sg17
I00
sg18
Nsg19
(I6
I8
tp125
sg21
I01
sg22
I01
sba(itile
tile
p126
(dp127
g4
I00
sg5
S'Animal remains'
p128
sg7
g8
sg9
S'Here are some animal remains.'
p129
sg11
I44
sg12
I01
sg13
I0
sg14
Nsg15
I01
sg16
I01
sg17
I00
sg18
Nsg19
(I8
I7
tp130
sg21
I01
sg22
I01
sba(itile
tile
p131
(dp132
g4
I00
sg5
S'Pilar'
p133
sg7
g8
sg9
S'You stand in front of a pilar.'
p134
sg11
I45
sg12
I00
sg13
I0
sg14
Nsg15
I01
sg16
I00
sg17
I00
sg18
Nsg19
(I5
I9
tp135
sg21
I01
sg22
I01
sba(itile
tile
p136
(dp137
g4
I00
sg5
S'Master Forge'
p138
sg7
S'purple'
p139
sg9
S'You stand in front of a legendary master forge.'
p140
sg11
I46
sg12
I01
sg13
I0
sg14
Nsg15
I00
sg16
I01
sg17
I00
sg18
Nsg19
(I0
I6
tp141
sg21
I00
sg22
I01
sba.