(lp1
(itile
tile
p2
(dp3
S'can_grown'
p4
I01
sS'name'
p5
S'Grass'
p6
sS'tile_color'
p7
S'light_green'
p8
sS'move_mes'
p9
S'You walk over soft grass.'
p10
sS'techID'
p11
I47
sS'move'
p12
I01
sS'damage'
p13
I0
sS'replace'
p14
NsS'build_here'
p15
I01
sS'transparency'
p16
I01
sS'destroy'
p17
I00
sS'damage_mes'
p18
NsS'tile_pos'
p19
(I5
I0
tp20
sS'civilisation'
p21
I00
sS'transparent'
p22
I01
sba(itile
tile
p23
(dp24
g4
I00
sg5
S'Scrub'
p25
sg7
S'green'
p26
sg9
S'There is a scrub here.'
p27
sg11
I48
sg12
I01
sg13
I0
sg14
Nsg15
I01
sg16
I01
sg17
I00
sg18
Nsg19
(I6
I1
tp28
sg21
I00
sg22
I01
sba(itile
tile
p29
(dp30
g4
I00
sg5
S'Scrub with red berries'
p31
sg7
S'red'
p32
sg9
S'There is a scrub with red berries here.'
p33
sg11
I49
sg12
I01
sg13
I0
sg14
Nsg15
I01
sg16
I01
sg17
I00
sg18
Nsg19
(I3
I10
tp34
sg21
I00
sg22
I01
sba(itile
tile
p35
(dp36
g4
I00
sg5
S'Scrub with buds'
p37
sg7
g26
sg9
S'There is a scrub with some buds here.'
p38
sg11
I50
sg12
I01
sg13
I0
sg14
Nsg15
I01
sg16
I01
sg17
I00
sg18
Nsg19
(I5
I4
tp39
sg21
I00
sg22
I01
sba(itile
tile
p40
(dp41
g4
I00
sg5
S'Scrub with blossoms'
p42
sg7
g26
sg9
S'There is a scrub with beautiful blossoms here.'
p43
sg11
I51
sg12
I01
sg13
I0
sg14
Nsg15
I01
sg16
I01
sg17
I00
sg18
Nsg19
(I1
I4
tp44
sg21
I00
sg22
I01
sba(itile
tile
p45
(dp46
g4
I00
sg5
S'Scrub with scruffy berries'
p47
sg7
S'brown'
p48
sg9
S'There is a scrub with scruffy berries here.'
p49
sg11
I52
sg12
I01
sg13
I0
sg14
Nsg15
I01
sg16
I01
sg17
I00
sg18
Nsg19
(I6
I2
tp50
sg21
I00
sg22
I01
sba(itile
tile
p51
(dp52
g4
I00
sg5
S'Scrub seed'
p53
sg7
g48
sg9
S'There are some seeds on the ground here.'
p54
sg11
I53
sg12
I01
sg13
I0
sg14
Nsg15
I01
sg16
I01
sg17
I00
sg18
Nsg19
(I5
I3
tp55
sg21
I00
sg22
I01
sba(itile
tile
p56
(dp57
g4
I00
sg5
S'Scrub sepling'
p58
sg7
g26
sg9
S'Something start to grow here.'
p59
sg11
I54
sg12
I01
sg13
I0
sg14
Nsg15
I01
sg16
I01
sg17
I00
sg18
Nsg19
(I5
I7
tp60
sg21
I00
sg22
I01
sba(itile
tile
p61
(dp62
g4
I00
sg5
S'Small Scrub'
p63
sg7
g26
sg9
S'There is a small scrub at this place.'
p64
sg11
I55
sg12
I01
sg13
I0
sg14
Nsg15
I01
sg16
I01
sg17
I00
sg18
Nsg19
(I1
I3
tp65
sg21
I00
sg22
I01
sba(itile
tile
p66
(dp67
g4
I00
sg5
S'Dead Scrub'
p68
sg7
g26
sg9
S'There is a dead scrub here.'
p69
sg11
I56
sg12
I01
sg13
I0
sg14
Nsg15
I01
sg16
I01
sg17
I00
sg18
Nsg19
(I6
I7
tp70
sg21
I00
sg22
I01
sba(itile
tile
p71
(dp72
g4
I00
sg5
S'Tree sepling'
p73
sg7
g48
sg9
S'There is a sepling here.'
p74
sg11
I57
sg12
I01
sg13
I0
sg14
Nsg15
I01
sg16
I01
sg17
I00
sg18
Nsg19
(I4
I1
tp75
sg21
I00
sg22
I01
sba(itile
tile
p76
(dp77
g4
I00
sg5
S'Tree young'
p78
sg7
g48
sg9
S'There is a young tree here.'
p79
sg11
I58
sg12
I00
sg13
I0
sg14
Nsg15
I01
sg16
I01
sg17
I00
sg18
Nsg19
(I4
I0
tp80
sg21
I00
sg22
I01
sba(itile
tile
p81
(dp82
g4
I00
sg5
S'Tree'
p83
sg7
g48
sg9
S'There is a tree here.'
p84
sg11
I59
sg12
I00
sg13
I0
sg14
Nsg15
I01
sg16
I00
sg17
I00
sg18
Nsg19
(I4
I3
tp85
sg21
I00
sg22
I01
sba(itile
tile
p86
(dp87
g4
I00
sg5
S'Tree dead'
p88
sg7
g48
sg9
S'There is a dead tree here.'
p89
sg11
I60
sg12
I00
sg13
I0
sg14
Nsg15
I01
sg16
I00
sg17
I00
sg18
Nsg19
(I4
I2
tp90
sg21
I00
sg22
I01
sba(itile
tile
p91
(dp92
g4
I00
sg5
S'Rock'
p93
sg7
S'grey'
p94
sg9
S'You break a big rock.'
p95
sg11
I61
sg12
I00
sg13
I0
sg14
Nsg15
I01
sg16
I01
sg17
I2
sg18
Nsg19
(I3
I8
tp96
sg21
I00
sg22
g2
sba(itile
tile
p97
(dp98
g4
I00
sg5
S'Herbs'
p99
sg7
S'white'
p100
sg9
S'Herbs grow at the ground.'
p101
sg11
I62
sg12
I01
sg13
I0
sg14
Nsg15
I01
sg16
I01
sg17
I00
sg18
Nsg19
(I1
I9
tp102
sg21
I00
sg22
I01
sba(itile
tile
p103
(dp104
g4
I00
sg5
S'Flowering herbs'
p105
sg7
g100
sg9
S'Flowering herbs grow at the ground.'
p106
sg11
I63
sg12
I01
sg13
I0
sg14
Nsg15
I01
sg16
I01
sg17
I00
sg18
Nsg19
(I0
I9
tp107
sg21
I00
sg22
I01
sba(itile
tile
p108
(dp109
g4
I00
sg5
S'Scrub with blue berries'
p110
sg7
S'blue'
p111
sg9
S'There is a scrub with blue berries here.'
p112
sg11
I64
sg12
I01
sg13
I0
sg14
Nsg15
I01
sg16
I01
sg17
I00
sg18
Nsg19
(I1
I5
tp113
sg21
I00
sg22
I01
sba(itile
tile
p114
(dp115
g4
I00
sg5
S'Scrub with yellow berries'
p116
sg7
S'yellow'
p117
sg9
S'There is a scrub with yellow berries here.'
p118
sg11
I65
sg12
I01
sg13
I0
sg14
Nsg15
I01
sg16
I01
sg17
I00
sg18
Nsg19
(I4
I4
tp119
sg21
I00
sg22
I01
sba.