(lp1
(itile
tile
p2
(dp3
S'can_grown'
p4
I01
sS'name'
p5
S'Grass'
p6
sS'tile_color'
p7
S'light_green'
p8
sS'move_mes'
p9
S'You walk over soft grass.'
p10
sS'techID'
p11
I47
sS'move'
p12
I01
sS'damage'
p13
I0
sS'replace'
p14
NsS'build_here'
p15
I01
sS'destroy'
p16
I00
sS'damage_mes'
p17
NsS'tile_pos'
p18
(I5
I0
tp19
sS'civilisation'
p20
I00
sS'transparent'
p21
I01
sba(itile
tile
p22
(dp23
g4
I00
sg5
S'Scrub'
p24
sg7
S'green'
p25
sg9
S'There is a scrub here.'
p26
sg11
I48
sg12
I01
sg13
I0
sg14
Nsg15
I01
sg16
I00
sg17
Nsg18
(I6
I1
tp27
sg20
I00
sg21
I01
sba(itile
tile
p28
(dp29
g4
I00
sg5
S'Scrub with red berries'
p30
sg7
S'red'
p31
sg9
S'There is a scrub with red berries here.'
p32
sg11
I49
sg12
I01
sg13
I0
sg14
Nsg15
I01
sg16
I00
sg17
Nsg18
(I3
I10
tp33
sg20
I00
sg21
I01
sba(itile
tile
p34
(dp35
g4
I00
sg5
S'Scrub with buds'
p36
sg7
g25
sg9
S'There is a scrub with some buds here.'
p37
sg11
I50
sg12
I01
sg13
I0
sg14
Nsg15
I01
sg16
I00
sg17
Nsg18
(I5
I4
tp38
sg20
I00
sg21
I01
sba(itile
tile
p39
(dp40
g4
I00
sg5
S'Scrub with blossoms'
p41
sg7
g25
sg9
S'There is a scrub with beautiful blossoms here.'
p42
sg11
I51
sg12
I01
sg13
I0
sg14
Nsg15
I01
sg16
I00
sg17
Nsg18
(I1
I4
tp43
sg20
I00
sg21
I01
sba(itile
tile
p44
(dp45
g4
I00
sg5
S'Scrub with scruffy berries'
p46
sg7
S'brown'
p47
sg9
S'There is a scrub with scruffy berries here.'
p48
sg11
I52
sg12
I01
sg13
I0
sg14
Nsg15
I01
sg16
I00
sg17
Nsg18
(I6
I2
tp49
sg20
I00
sg21
I01
sba(itile
tile
p50
(dp51
g4
I00
sg5
S'Scrub seed'
p52
sg7
g47
sg9
S'There are some seeds on the ground here.'
p53
sg11
I53
sg12
I01
sg13
I0
sg14
Nsg15
I01
sg16
I00
sg17
Nsg18
(I5
I3
tp54
sg20
I00
sg21
I01
sba(itile
tile
p55
(dp56
g4
I00
sg5
S'Scrub sepling'
p57
sg7
g25
sg9
S'Something start to grow here.'
p58
sg11
I54
sg12
I01
sg13
I0
sg14
Nsg15
I01
sg16
I00
sg17
Nsg18
(I5
I7
tp59
sg20
I00
sg21
I01
sba(itile
tile
p60
(dp61
g4
I00
sg5
S'Small Scrub'
p62
sg7
g25
sg9
S'There is a small scrub at this place.'
p63
sg11
I55
sg12
I01
sg13
I0
sg14
Nsg15
I01
sg16
I00
sg17
Nsg18
(I1
I3
tp64
sg20
I00
sg21
I01
sba(itile
tile
p65
(dp66
g4
I00
sg5
S'Dead Scrub'
p67
sg7
g25
sg9
S'There is a dead scrub here.'
p68
sg11
I56
sg12
I01
sg13
I0
sg14
Nsg15
I01
sg16
I00
sg17
Nsg18
(I6
I7
tp69
sg20
I00
sg21
I01
sba(itile
tile
p70
(dp71
g4
I00
sg5
S'Tree sepling'
p72
sg7
g47
sg9
S'There is a sepling here.'
p73
sg11
I57
sg12
I01
sg13
I0
sg14
Nsg15
I01
sg16
I00
sg17
Nsg18
(I4
I1
tp74
sg20
I00
sg21
I01
sba(itile
tile
p75
(dp76
g4
I00
sg5
S'Tree young'
p77
sg7
g47
sg9
S'There is a young tree here.'
p78
sg11
I58
sg12
I00
sg13
I0
sg14
Nsg15
I01
sg16
I00
sg17
Nsg18
(I4
I0
tp79
sg20
I00
sg21
I01
sba(itile
tile
p80
(dp81
g4
I00
sg5
S'Tree'
p82
sg7
g47
sg9
S'There is a tree here.'
p83
sg11
I59
sg12
I00
sg13
I0
sg14
Nsg15
I01
sg16
I00
sg17
Nsg18
(I4
I3
tp84
sg20
I00
sg21
I01
sba(itile
tile
p85
(dp86
g4
I00
sg5
S'Tree dead'
p87
sg7
g47
sg9
S'There is a dead tree here.'
p88
sg11
I60
sg12
I00
sg13
I0
sg14
Nsg15
I01
sg16
I00
sg17
Nsg18
(I4
I2
tp89
sg20
I00
sg21
I01
sba(itile
tile
p90
(dp91
g4
I00
sg5
S'Rock'
p92
sg7
S'grey'
p93
sg9
S'You break a big rock.'
p94
sg11
I61
sg12
I00
sg13
I0
sg14
Nsg15
I01
sg16
I2
sg17
Nsg18
(I3
I8
tp95
sg20
I00
sg21
g2
sba(itile
tile
p96
(dp97
g4
I00
sg5
S'Herbs'
p98
sg7
S'white'
p99
sg9
S'Herbs grow at the ground.'
p100
sg11
I62
sg12
I01
sg13
I0
sg14
Nsg15
I01
sg16
I00
sg17
Nsg18
(I1
I9
tp101
sg20
I00
sg21
I01
sba(itile
tile
p102
(dp103
g4
I00
sg5
S'Flowering herbs'
p104
sg7
g99
sg9
S'Flowering herbs grow at the ground.'
p105
sg11
I63
sg12
I01
sg13
I0
sg14
Nsg15
I01
sg16
I00
sg17
Nsg18
(I0
I9
tp106
sg20
I00
sg21
I01
sba(itile
tile
p107
(dp108
g4
I00
sg5
S'Scrub with blue berries'
p109
sg7
S'blue'
p110
sg9
S'There is a scrub with blue berries here.'
p111
sg11
I64
sg12
I01
sg13
I0
sg14
Nsg15
I01
sg16
I00
sg17
Nsg18
(I1
I5
tp112
sg20
I00
sg21
I01
sba(itile
tile
p113
(dp114
g4
I00
sg5
S'Scrub with yellow berries'
p115
sg7
S'yellow'
p116
sg9
S'There is a scrub with yellow berries here.'
p117
sg11
I65
sg12
I01
sg13
I0
sg14
Nsg15
I01
sg16
I00
sg17
Nsg18
(I4
I4
tp118
sg20
I00
sg21
I01
sba.