(lp0
(imonster
monster
p1
(dp2
S'worn_equipment'
p3
(I1
I0
I1
I0
I1
tp4
sS'attack_were'
p5
(S'Head'
p6
S'Body'
p7
S'Legs'
p8
tp9
sS'name'
p10
S'orc warlord'
p11
sS'move_border'
p12
I2
sS'techID'
p13
I13
sS'lp'
p14
I2
sS'AI_style'
p15
S'hostile'
p16
sS'ignore_damage'
p17
I00
sS'corps_lvl'
p18
I1
sS'sprite_pos'
p19
(I1
I5
tp20
sS'move_done'
p21
I0
sS'basic_attribute'
p22
(iattribute
attribute
p23
(dp24
S'p_defense'
p25
I2
sS'pickaxe_power'
p26
I1
sS'p_strange'
p27
I2
sS'm_strange'
p28
I2
sS'hunger'
p29
I3600
sS'thirst_max'
p30
I2160
sS'hunger_max'
p31
I3600
sS'thirst'
p32
I2160
sS'tiredness_max'
p33
I5040
sS'tiredness'
p34
I5040
sS'max_lp'
p35
I2
sS'max_mp'
p36
I2
sS'm_defense'
p37
I2
sS'luck'
p38
I1
sbsS'ignore_water'
p39
I01
sS'attribute_prev'
p40
(I2
I2
I0
I1
I2
tp41
sS'behavior'
p42
S'attack_melee'
p43
sS'possible_effect'
p44
S'bleeding'
p45
sS'lvl'
p46
I0
sS'message'
p47
S'The orc warlord tears you a bleeding wound.'
p48
sS'effect_probability'
p49
I20
sS'effect_duration'
p50
I5
sS'corps_style'
p51
S'human'
p52
sba(imonster
monster
p53
(dp54
g3
(I1
I0
I1
I0
I1
tp55
sg5
(g6
g7
g8
tp56
sg10
g11
sg12
I2
sg13
I14
sg14
I2
sg15
g16
sg17
I00
sg18
I3
sg19
(I1
I5
tp57
sg21
I0
sg22
(iattribute
attribute
p58
(dp59
g25
I2
sg26
I1
sg27
I2
sg28
I2
sg29
I3600
sg30
I2160
sg31
I3600
sg32
I2160
sg33
I5040
sg34
I5040
sg35
I2
sg36
I2
sg37
I2
sg38
I1
sbsg39
I01
sg40
(I2
I2
I0
I1
I2
tp60
sg42
g43
sg44
g45
sg46
I0
sg47
g48
sg49
I20
sg50
I5
sg51
g52
sba(imonster
monster
p61
(dp62
g3
(I0
I1
I0
I1
I1
tp63
sg5
(g6
g7
g8
S'Feet'
p64
tp65
sg10
S'orcish hag'
p66
sg12
I2
sg13
I15
sg14
I2
sg15
g16
sg17
I00
sg18
I2
sg19
(I0
I6
tp67
sg21
I0
sg22
(iattribute
attribute
p68
(dp69
g25
I2
sg26
I1
sg27
I2
sg28
I2
sg29
I3600
sg30
I2160
sg31
I3600
sg32
I2160
sg33
I5040
sg34
I5040
sg35
I2
sg36
I2
sg37
I2
sg38
I1
sbsg39
I01
sg40
(I0
I1
I2
I2
I2
tp70
sg42
S'attack_magic'
p71
sg44
S'hexed'
p72
sg46
I0
sg47
S'The orcish hag puts a hex on you.'
p73
sg49
I20
sg50
I40
sg51
S'scrollkeeper'
p74
sba(imonster
monster
p75
(dp76
g3
(I0
I0
I0
I0
I0
tp77
sg5
(g6
g7
g8
g64
tp78
sg10
S'orcish digger'
p79
sg12
I2
sg13
I16
sg14
I2
sg15
g16
sg17
I00
sg18
I2
sg19
(I1
I6
tp80
sg21
I0
sg22
(iattribute
attribute
p81
(dp82
g25
I2
sg26
I1
sg27
I2
sg28
I2
sg29
I3600
sg30
I2160
sg31
I3600
sg32
I2160
sg33
I5040
sg34
I5040
sg35
I2
sg36
I2
sg37
I2
sg38
I1
sbsg39
I01
sg40
(I1
I2
I0
I1
I1
tp83
sg42
g43
sg44
Nsg46
I0
sg47
S'None'
p84
sg49
I0
sg50
I0
sg51
S'miner'
p85
sba(imonster
monster
p86
(dp87
g3
(I0
I0
I0
I0
I0
tp88
sg5
(g8
g64
tp89
sg10
S'blood snake'
p90
sg12
I2
sg13
I17
sg14
I2
sg15
g16
sg17
I00
sg18
I2
sg19
(I2
I6
tp91
sg21
I0
sg22
(iattribute
attribute
p92
(dp93
g25
I2
sg26
I1
sg27
I2
sg28
I2
sg29
I3600
sg30
I2160
sg31
I3600
sg32
I2160
sg33
I5040
sg34
I5040
sg35
I2
sg36
I2
sg37
I2
sg38
I1
sbsg39
I01
sg40
(I2
I2
I0
I0
I1
tp94
sg42
g43
sg44
S'poisoned'
p95
sg46
I0
sg47
S'Poison runs trough your veins!'
p96
sg49
I45
sg50
I60
sg51
S'animal'
p97
sba.