(lp1
(itile
tile
p2
(dp3
S'can_grown'
p4
I00
sS'name'
p5
S'Low water'
p6
sS'tile_color'
p7
S'light_blue'
p8
sS'move_mes'
p9
S'Your feet become wet.'
p10
sS'techID'
p11
I0
sS'move'
p12
I01
sS'damage'
p13
I0
sS'replace'
p14
NsS'build_here'
p15
I01
sS'destroy'
p16
I00
sS'damage_mes'
p17
NsS'tile_pos'
p18
(I0
I7
tp19
sS'civilisation'
p20
I00
sS'transparent'
p21
I01
sba(itile
tile
p22
(dp23
g4
I00
sg5
S'Mud'
p24
sg7
S'brown'
p25
sg9
S'The ground under your feet feels soft and wet.'
p26
sg11
I1
sg12
I01
sg13
I0
sg14
Nsg15
I01
sg16
I00
sg17
Nsg18
(I6
I10
tp27
sg20
I00
sg21
I01
sba(itile
tile
p28
(dp29
g4
I00
sg5
S'Hot caveground'
p30
sg7
S'red'
p31
sg9
S'The ground under your feet feels like hot coals.'
p32
sg11
I2
sg12
I01
sg13
I0
sg14
Nsg15
I01
sg16
I00
sg17
Nsg18
(I5
I5
tp33
sg20
I00
sg21
I01
sba(itile
tile
p34
(dp35
g4
I00
sg5
S'Water'
p36
sg7
S'blue'
p37
sg9
S'None'
p38
sg11
I3
sg12
I00
sg13
I0
sg14
Nsg15
I01
sg16
I00
sg17
Nsg18
(I1
I2
tp39
sg20
I00
sg21
I01
sba(itile
tile
p40
(dp41
g4
I00
sg5
S'Ore'
p42
sg7
S'light_red'
p43
sg9
S'You brake some ore out of the solid rock here.'
p44
sg11
I4
sg12
I00
sg13
I0
sg14
Nsg15
I01
sg16
I2
sg17
Nsg18
(I0
I2
tp45
sg20
I00
sg21
I01
sba(itile
tile
p46
(dp47
g4
I00
sg5
S'Gem'
p48
sg7
g8
sg9
S'You brake a gem out of the solid rock here.'
p49
sg11
I5
sg12
I00
sg13
I0
sg14
Nsg15
I01
sg16
I4
sg17
Nsg18
(I5
I1
tp50
sg20
I00
sg21
I01
sba(itile
tile
p51
(dp52
g4
I00
sg5
S'Blue Mushroom'
p53
sg7
S'white'
p54
sg9
S'A blue mushroom grows here.'
p55
sg11
I6
sg12
I01
sg13
I0
sg14
Nsg15
I01
sg16
I00
sg17
Nsg18
(I1
I6
tp56
sg20
I00
sg21
I01
sba(itile
tile
p57
(dp58
g4
I00
sg5
S'Brown Mushroom'
p59
sg7
g54
sg9
S'A brown mushroom grows here.'
p60
sg11
I7
sg12
I01
sg13
I0
sg14
Nsg15
I01
sg16
I00
sg17
Nsg18
(I5
I8
tp61
sg20
I00
sg21
I01
sba(itile
tile
p62
(dp63
g4
I00
sg5
S'Purple Mushroom'
p64
sg7
g54
sg9
S'A purple mushroom grows here.'
p65
sg11
I8
sg12
I01
sg13
I0
sg14
Nsg15
I01
sg16
I00
sg17
Nsg18
(I5
I6
tp66
sg20
I00
sg21
I01
sba(itile
tile
p67
(dp68
g4
I00
sg5
S'Lost Gem'
p69
sg7
g31
sg9
S'Some gem lies on the ground right here.'
p70
sg11
I9
sg12
I01
sg13
I0
sg14
Nsg15
I01
sg16
I00
sg17
Nsg18
(I1
I8
tp71
sg20
I00
sg21
I01
sba(itile
tile
p72
(dp73
g4
I00
sg5
S'Water Lily'
p74
sg7
g54
sg9
S'A water lily grows here.'
p75
sg11
I10
sg12
I01
sg13
I0
sg14
Nsg15
I01
sg16
I00
sg17
Nsg18
(I1
I1
tp76
sg20
I00
sg21
I01
sba(itile
tile
p77
(dp78
g4
I00
sg5
S'Lost Ore'
p79
sg7
g31
sg9
S'Some ore lies on the ground right here.'
p80
sg11
I11
sg12
I01
sg13
I0
sg14
Nsg15
I01
sg16
I00
sg17
Nsg18
(I1
I7
tp81
sg20
I00
sg21
I01
sba(itile
tile
p82
(dp83
g4
I00
sg5
S'Present'
p84
sg7
g31
sg9
S'A present lies on the ground right here.'
p85
sg11
I12
sg12
I01
sg13
I0
sg14
Nsg15
I01
sg16
I00
sg17
Nsg18
(I6
I4
tp86
sg20
I00
sg21
I01
sba(itile
tile
p87
(dp88
g4
I00
sg5
S'Water Lily with Blossom'
p89
sg7
g54
sg9
S'A water lily with a beautiful blossom grows here.'
p90
sg11
I13
sg12
I01
sg13
I0
sg14
Nsg15
I01
sg16
I00
sg17
Nsg18
(I1
I0
tp91
sg20
I00
sg21
I01
sba(itile
tile
p92
(dp93
g4
I00
sg5
S'Giant Mushroom'
p94
sg7
g54
sg9
S'There is a giant mushroom here.'
p95
sg11
I14
sg12
I00
sg13
I0
sg14
Nsg15
I01
sg16
I00
sg17
Nsg18
(I6
I0
tp96
sg20
I00
sg21
I01
sba.