(lp1
(itile
tile
p2
(dp3
S'can_grown'
p4
I00
sS'name'
p5
S'Low water'
p6
sS'tile_color'
p7
S'light_blue'
p8
sS'move_mes'
p9
S'Your feet become wet.'
p10
sS'techID'
p11
I0
sS'move'
p12
I01
sS'damage'
p13
I0
sS'replace'
p14
NsS'build_here'
p15
I01
sS'transparency'
p16
I01
sS'destroy'
p17
I00
sS'damage_mes'
p18
NsS'tile_pos'
p19
(I0
I7
tp20
sS'civilisation'
p21
I00
sS'transparent'
p22
I01
sba(itile
tile
p23
(dp24
g4
I00
sg5
S'Mud'
p25
sg7
S'brown'
p26
sg9
S'The ground under your feet feels soft and wet.'
p27
sg11
I1
sg12
I01
sg13
I0
sg14
Nsg15
I01
sg16
I01
sg17
I00
sg18
Nsg19
(I6
I10
tp28
sg21
I00
sg22
I01
sba(itile
tile
p29
(dp30
g4
I00
sg5
S'Hot caveground'
p31
sg7
S'red'
p32
sg9
S'The ground under your feet feels like hot coals.'
p33
sg11
I2
sg12
I01
sg13
I0
sg14
Nsg15
I01
sg16
I01
sg17
I00
sg18
Nsg19
(I5
I5
tp34
sg21
I00
sg22
I01
sba(itile
tile
p35
(dp36
g4
I00
sg5
S'Water'
p37
sg7
S'blue'
p38
sg9
S'None'
p39
sg11
I3
sg12
I00
sg13
I0
sg14
Nsg15
I01
sg16
I01
sg17
I00
sg18
Nsg19
(I1
I2
tp40
sg21
I00
sg22
I01
sba(itile
tile
p41
(dp42
g4
I00
sg5
S'Ore'
p43
sg7
S'light_red'
p44
sg9
S'You brake some ore out of the solid rock here.'
p45
sg11
I4
sg12
I00
sg13
I0
sg14
Nsg15
I01
sg16
I00
sg17
I2
sg18
Nsg19
(I0
I2
tp46
sg21
I00
sg22
I01
sba(itile
tile
p47
(dp48
g4
I00
sg5
S'Gem'
p49
sg7
g8
sg9
S'You brake a gem out of the solid rock here.'
p50
sg11
I5
sg12
I00
sg13
I0
sg14
Nsg15
I01
sg16
I00
sg17
I4
sg18
Nsg19
(I5
I1
tp51
sg21
I00
sg22
I01
sba(itile
tile
p52
(dp53
g4
I00
sg5
S'Blue Mushroom'
p54
sg7
S'white'
p55
sg9
S'A blue mushroom grows here.'
p56
sg11
I6
sg12
I01
sg13
I0
sg14
Nsg15
I01
sg16
I01
sg17
I00
sg18
Nsg19
(I1
I6
tp57
sg21
I00
sg22
I01
sba(itile
tile
p58
(dp59
g4
I00
sg5
S'Brown Mushroom'
p60
sg7
g55
sg9
S'A brown mushroom grows here.'
p61
sg11
I7
sg12
I01
sg13
I0
sg14
Nsg15
I01
sg16
I01
sg17
I00
sg18
Nsg19
(I5
I8
tp62
sg21
I00
sg22
I01
sba(itile
tile
p63
(dp64
g4
I00
sg5
S'Purple Mushroom'
p65
sg7
g55
sg9
S'A purple mushroom grows here.'
p66
sg11
I8
sg12
I01
sg13
I0
sg14
Nsg15
I01
sg16
I01
sg17
I00
sg18
Nsg19
(I5
I6
tp67
sg21
I00
sg22
I01
sba(itile
tile
p68
(dp69
g4
I00
sg5
S'Lost Gem'
p70
sg7
g32
sg9
S'Some gem lies on the ground right here.'
p71
sg11
I9
sg12
I01
sg13
I0
sg14
Nsg15
I01
sg16
I01
sg17
I00
sg18
Nsg19
(I1
I8
tp72
sg21
I00
sg22
I01
sba(itile
tile
p73
(dp74
g4
I00
sg5
S'Water Lily'
p75
sg7
g55
sg9
S'A water lily grows here.'
p76
sg11
I10
sg12
I01
sg13
I0
sg14
Nsg15
I01
sg16
I01
sg17
I00
sg18
Nsg19
(I1
I1
tp77
sg21
I00
sg22
I01
sba(itile
tile
p78
(dp79
g4
I00
sg5
S'Lost Ore'
p80
sg7
g32
sg9
S'Some ore lies on the ground right here.'
p81
sg11
I11
sg12
I01
sg13
I0
sg14
Nsg15
I01
sg16
I01
sg17
I00
sg18
Nsg19
(I1
I7
tp82
sg21
I00
sg22
I01
sba(itile
tile
p83
(dp84
g4
I00
sg5
S'Present'
p85
sg7
g32
sg9
S'A present lies on the ground right here.'
p86
sg11
I12
sg12
I01
sg13
I0
sg14
Nsg15
I01
sg16
I01
sg17
I00
sg18
Nsg19
(I6
I4
tp87
sg21
I00
sg22
I01
sba(itile
tile
p88
(dp89
g4
I00
sg5
S'Water Lily with Blossom'
p90
sg7
g55
sg9
S'A water lily with a beautiful blossom grows here.'
p91
sg11
I13
sg12
I01
sg13
I0
sg14
Nsg15
I01
sg16
I01
sg17
I00
sg18
Nsg19
(I1
I0
tp92
sg21
I00
sg22
I01
sba(itile
tile
p93
(dp94
g4
I00
sg5
S'Giant Mushroom'
p95
sg7
g55
sg9
S'There is a giant mushroom here.'
p96
sg11
I14
sg12
I00
sg13
I0
sg14
Nsg15
I01
sg16
I00
sg17
I00
sg18
Nsg19
(I6
I0
tp97
sg21
I00
sg22
I01
sba.