(lp0
(imonster
monster
p1
(dp2
S'worn_equipment'
p3
(I0
I1
I0
I0
I0
tp4
sS'attack_were'
p5
(S'Head'
p6
S'Body'
p7
S'Legs'
p8
tp9
sS'name'
p10
S'angry dryade'
p11
sS'move_border'
p12
I2
sS'techID'
p13
I0
sS'lp'
p14
I2
sS'AI_style'
p15
S'hostile'
p16
sS'ignore_damage'
p17
I00
sS'corps_lvl'
p18
I1
sS'sprite_pos'
p19
(I2
I8
tp20
sS'move_done'
p21
I0
sS'basic_attribute'
p22
(iattribute
attribute
p23
(dp24
S'p_defense'
p25
I2
sS'pickaxe_power'
p26
I1
sS'p_strange'
p27
I2
sS'm_strange'
p28
I2
sS'hunger'
p29
I3600
sS'thirst_max'
p30
I2160
sS'hunger_max'
p31
I3600
sS'thirst'
p32
I2160
sS'tiredness_max'
p33
I5040
sS'tiredness'
p34
I5040
sS'max_lp'
p35
I2
sS'max_mp'
p36
I2
sS'm_defense'
p37
I2
sS'luck'
p38
I1
sbsS'ignore_water'
p39
I01
sS'attribute_prev'
p40
(I0
I1
I2
I2
I1
tp41
sS'behavior'
p42
S'attack_magic'
p43
sS'possible_effect'
p44
NsS'lvl'
p45
I0
sS'message'
p46
S'None'
p47
sS'effect_probability'
p48
I0
sS'effect_duration'
p49
I0
sS'corps_style'
p50
S'dryade'
p51
sba(imonster
monster
p52
(dp53
g3
(I0
I0
I0
I0
I0
tp54
sg5
(g8
S'Feet'
p55
tp56
sg10
S'grassland snake'
p57
sg12
I1
sg13
I1
sg14
I2
sg15
g16
sg17
I00
sg18
I1
sg19
(I0
I9
tp58
sg21
I0
sg22
(iattribute
attribute
p59
(dp60
g25
I2
sg26
I1
sg27
I2
sg28
I2
sg29
I3600
sg30
I2160
sg31
I3600
sg32
I2160
sg33
I5040
sg34
I5040
sg35
I2
sg36
I2
sg37
I2
sg38
I1
sbsg39
I00
sg40
(I2
I1
I0
I0
I0
tp61
sg42
S'attack_melee'
p62
sg44
S'poisoned'
p63
sg45
I0
sg46
S'Poison runs trough your veins!'
p64
sg48
I20
sg49
I20
sg50
S'animal'
p65
sba(imonster
monster
p66
(dp67
g3
(I0
I0
I0
I0
I0
tp68
sg5
g55
sg10
S'rabbit'
p69
sg12
I0
sg13
I2
sg14
I2
sg15
S'flee'
p70
sg17
I00
sg18
I1
sg19
(I1
I4
tp71
sg21
I0
sg22
(iattribute
attribute
p72
(dp73
g25
I2
sg26
I1
sg27
I2
sg28
I2
sg29
I3600
sg30
I2160
sg31
I3600
sg32
I2160
sg33
I5040
sg34
I5040
sg35
I2
sg36
I2
sg37
I2
sg38
I1
sbsg39
I00
sg40
(I0
I1
I0
I1
I1
tp74
sg42
g62
sg44
Nsg45
I0
sg46
g47
sg48
I0
sg49
I0
sg50
g65
sba(imonster
monster
p75
(dp76
g3
(I0
I0
I0
I0
I0
tp77
sg5
(g8
g55
tp78
sg10
S'green blob'
p79
sg12
I4
sg13
I3
sg14
I2
sg15
g16
sg17
I00
sg18
I5
sg19
(I1
I8
tp80
sg21
I0
sg22
(iattribute
attribute
p81
(dp82
g25
I2
sg26
I1
sg27
I2
sg28
I2
sg29
I3600
sg30
I2160
sg31
I3600
sg32
I2160
sg33
I5040
sg34
I5040
sg35
I2
sg36
I2
sg37
I2
sg38
I1
sbsg39
I00
sg40
(I2
I2
I0
I1
I1
tp83
sg42
g62
sg44
Nsg45
I0
sg46
g47
sg48
I0
sg49
I0
sg50
S'vanish'
p84
sba(imonster
monster
p85
(dp86
g3
(I1
I0
I1
I0
I0
tp87
sg5
(g6
g7
g8
g55
tp88
sg10
S'hill orc'
p89
sg12
I2
sg13
I4
sg14
I2
sg15
g16
sg17
I00
sg18
I2
sg19
(I1
I7
tp90
sg21
I0
sg22
(iattribute
attribute
p91
(dp92
g25
I2
sg26
I1
sg27
I2
sg28
I2
sg29
I3600
sg30
I2160
sg31
I3600
sg32
I2160
sg33
I5040
sg34
I5040
sg35
I2
sg36
I2
sg37
I2
sg38
I1
sbsg39
I01
sg40
(I3
I1
I0
I1
I1
tp93
sg42
g62
sg44
Nsg45
I0
sg46
g47
sg48
I0
sg49
I0
sg50
S'human'
p94
sba.