(lp0
(imonster
monster
p1
(dp2
S'worn_equipment'
p3
(I0
I0
I0
I0
I0
tp4
sS'attack_were'
p5
(S'Legs'
p6
S'Feet'
p7
tp8
sS'name'
p9
S'vase'
p10
sS'move_border'
p11
I10
sS'techID'
p12
I30
sS'lp'
p13
I2
sS'AI_style'
p14
S'flee'
p15
sS'ignore_damage'
p16
I01
sS'corps_lvl'
p17
I5
sS'sprite_pos'
p18
(I0
I3
tp19
sS'move_done'
p20
I0
sS'basic_attribute'
p21
(iattribute
attribute
p22
(dp23
S'p_defense'
p24
I2
sS'pickaxe_power'
p25
I1
sS'p_strange'
p26
I2
sS'm_strange'
p27
I2
sS'hunger'
p28
I3600
sS'thirst_max'
p29
I2160
sS'hunger_max'
p30
I3600
sS'thirst'
p31
I2160
sS'tiredness_max'
p32
I5040
sS'tiredness'
p33
I5040
sS'max_lp'
p34
I2
sS'max_mp'
p35
I2
sS'm_defense'
p36
I2
sS'luck'
p37
I1
sbsS'ignore_water'
p38
I01
sS'attribute_prev'
p39
(I2
I0
I2
I0
I0
tp40
sS'behavior'
p41
S'attack_melee'
p42
sS'possible_effect'
p43
NsS'lvl'
p44
I0
sS'message'
p45
S'None'
p46
sS'effect_probability'
p47
I0
sS'effect_duration'
p48
I0
sS'corps_style'
p49
S'miner'
p50
sba(imonster
monster
p51
(dp52
g3
(I0
I0
I0
I0
I0
tp53
sg5
(g6
g7
tp54
sg9
S'monster vase'
p55
sg11
I10
sg12
I31
sg13
I2
sg14
g15
sg16
I01
sg17
I5
sg18
(I0
I3
tp56
sg20
I0
sg21
(iattribute
attribute
p57
(dp58
g24
I2
sg25
I1
sg26
I2
sg27
I2
sg28
I3600
sg29
I2160
sg30
I3600
sg31
I2160
sg32
I5040
sg33
I5040
sg34
I2
sg35
I2
sg36
I2
sg37
I1
sbsg38
I01
sg39
(I2
I0
I2
I0
I0
tp59
sg41
g42
sg43
Nsg44
I0
sg45
g46
sg47
I0
sg48
I0
sg49
g10
sba(imonster
monster
p60
(dp61
g3
(I0
I0
I0
I0
I0
tp62
sg5
(S'Body'
p63
g6
g7
tp64
sg9
S'vase monster'
p65
sg11
I1
sg12
I32
sg13
I2
sg14
S'hostile'
p66
sg16
I00
sg17
I5
sg18
(I0
I2
tp67
sg20
I0
sg21
(iattribute
attribute
p68
(dp69
g24
I2
sg25
I1
sg26
I2
sg27
I2
sg28
I3600
sg29
I2160
sg30
I3600
sg31
I2160
sg32
I5040
sg33
I5040
sg34
I2
sg35
I2
sg36
I2
sg37
I1
sbsg38
I01
sg39
(I2
I2
I2
I2
I2
tp70
sg41
S'attack_random'
p71
sg43
Nsg44
I0
sg45
g46
sg47
I0
sg48
I0
sg49
g50
sba(imonster
monster
p72
(dp73
g3
(I0
I0
I0
I0
I0
tp74
sg5
(g6
g7
tp75
sg9
S'sleeping mimic'
p76
sg11
I10
sg12
I33
sg13
I2
sg14
g15
sg16
I01
sg17
I5
sg18
(I1
I1
tp77
sg20
I0
sg21
(iattribute
attribute
p78
(dp79
g24
I2
sg25
I1
sg26
I2
sg27
I2
sg28
I3600
sg29
I2160
sg30
I3600
sg31
I2160
sg32
I5040
sg33
I5040
sg34
I2
sg35
I2
sg36
I2
sg37
I1
sbsg38
I01
sg39
(I2
I0
I2
I0
I0
tp80
sg41
g42
sg43
Nsg44
I0
sg45
g46
sg47
I0
sg48
I0
sg49
S'mimic'
p81
sba(imonster
monster
p82
(dp83
g3
(I0
I0
I0
I0
I0
tp84
sg5
(S'Head'
p85
g63
g6
g7
tp86
sg9
g81
sg11
I4
sg12
I34
sg13
I2
sg14
g66
sg16
I01
sg17
I99
sg18
(I0
I7
tp87
sg20
I0
sg21
(iattribute
attribute
p88
(dp89
g24
I2
sg25
I1
sg26
I2
sg27
I2
sg28
I3600
sg29
I2160
sg30
I3600
sg31
I2160
sg32
I5040
sg33
I5040
sg34
I2
sg35
I2
sg36
I2
sg37
I1
sbsg38
I01
sg39
(I2
I2
I2
I2
I2
tp90
sg41
g71
sg43
Nsg44
I0
sg45
g46
sg47
I0
sg48
I0
sg49
S'vanish'
p91
sba.